(lp0
F31.95575221238938
aF29.31297709923664
aF27.011111111111113
aF32.5933014354067
aF29.930232558139537
aF35.76923076923077
aF30.739795918367346
aF33.08675799086758
aF35.130434782608695
aF38.37078651685393
aF29.902542372881356
aF31.779026217228463
aF34.483695652173914
aF38.431693989071036
aF33.45733788395904
aF34.51282051282051
aF26.07608695652174
aF44.7
aF39.333333333333336
aF37.31944444444444
aF31.964285714285715
aF32.21885521885522
aF33.98351648351648
aF28.080459770114942
aF33.28668941979522
aF33.15068493150685
aF26.736842105263158
aF32.094202898550726
aF29.842105263157894
aF40.08108108108108
aF31.25974025974026
aF33.72839506172839
aF28.072164948453608
aF27.0
aF30.0
aF27.692307692307693
aF27.5
aF30.066666666666666
aF30.701149425287355
aF31.49122807017544
aF23.216216216216218
aF30.35135135135135
aF31.1
aF33.21518987341772
aF38.6125
aF32.0
aF33.285714285714285
aF34.0
aF30.938271604938272
aF32.739279588336196
aF31.160493827160494
aF35.857142857142854
aF29.1015625
aF31.08653846153846
aF30.140939597315437
aF32.20558375634518
aF36.25
aF33.245714285714286
aF34.42168674698795
aF33.953125
aF33.11864406779661
aF30.20472440944882
aF30.5
aF32.80565371024735
aF32.21739130434783
aF32.876543209876544
aF28.990291262135923
aF28.78358208955224
aF32.82554517133956
aF34.03585657370518
aF31.404545454545456
aF32.248062015503876
aF31.578125
aF33.42857142857143
aF30.6
aF31.796296296296298
aF31.410596026490065
aF29.21212121212121
aF31.967261904761905
aF26.75
aF32.14545454545455
aF31.532567049808428
aF32.13068181818182
aF26.166666666666668
aF30.689655172413794
aF36.166666666666664
aF32.528985507246375
aF33.15023474178404
aF32.74909090909091
aF28.147368421052633
aF29.307692307692307
aF28.75
aF30.383928571428573
aF30.474452554744527
aF29.82648401826484
aF31.057627118644067
aF33.0859375
aF33.02307692307692
aF31.813953488372093
aF34.37992125984252
aF29.10958904109589
aF31.37037037037037
aF34.266666666666666
aF28.6
aF29.93243243243243
aF33.816901408450704
aF36.42857142857143
aF27.153846153846153
aF28.607692307692307
aF30.967741935483872
aF31.441176470588236
aF34.15
aF39.111111111111114
aF32.985074626865675
aF33.13333333333333
aF38.632
aF31.402116402116402
aF32.11262798634812
aF43.0
aF31.044776119402986
aF31.778554778554778
aF28.433962264150942
aF27.904347826086955
aF35.855614973262036
aF31.62704918032787
aF36.96907216494845
aF35.220338983050844
aF27.476923076923075
aF32.17829457364341
aF39.130434782608695
aF36.01052631578948
aF33.76829268292683
aF36.0
aF36.04040404040404
aF34.49034749034749
aF36.22857142857143
aF36.005847953216374
aF32.31578947368421
aF30.1
aF31.78688524590164
aF35.93055555555556
aF30.63157894736842
aF32.671171171171174
aF31.76954732510288
aF28.353846153846153
aF36.0
aF30.556756756756755
aF32.0625
aF35.08695652173913
aF29.356687898089174
aF31.24846625766871
aF36.84146341463415
aF34.473684210526315
aF32.14942528735632
aF30.459183673469386
aF28.89864864864865
aF33.16535433070866
aF29.116666666666667
aF29.257425742574256
aF33.68115942028985
aF31.813636363636363
aF36.9622641509434
aF36.73913043478261
aF30.344370860927153
aF38.4375
aF38.91379310344828
aF34.656716417910445
aF31.731012658227847
aF31.550847457627118
aF37.95867768595041
aF31.630769230769232
aF32.16076294277929
aF31.435185185185187
aF33.01428571428571
aF33.14423076923077
aF32.140845070422536
aF35.35036496350365
aF35.184
aF33.01357466063349
aF34.41628959276018
aF32.14990138067061
aF32.915929203539825
aF33.07216494845361
aF27.18103448275862
aF34.14644351464435
aF33.31474103585657
aF35.038277511961724
aF32.09411764705882
aF30.303030303030305
aF36.024193548387096
aF34.65217391304348
aF34.78448275862069
aF35.853503184713375
aF36.71784232365145
aF32.053156146179404
aF32.800796812749006
aF36.57740585774059
aF34.24409448818898
aF39.13939393939394
aF31.655339805825243
aF27.865168539325843
aF32.6
aF32.9010989010989
aF32.95428571428572
aF39.5
aF28.8
aF35.77272727272727
aF34.465
aF32.86910994764398
aF32.41087613293051
aF37.42718446601942
aF37.369565217391305
aF36.917910447761194
aF30.517543859649123
aF33.235849056603776
aF33.62068965517241
aF27.983333333333334
aF30.65497076023392
aF29.72972972972973
aF34.65151515151515
aF37.108108108108105
aF31.49041095890411
aF32.911764705882355
aF37.5
aF32.43119266055046
aF31.626506024096386
aF30.77639751552795
aF31.790983606557376
aF32.239766081871345
aF31.91457286432161
aF29.697183098591548
aF28.198019801980198
aF29.838709677419356
aF32.739285714285714
aF31.682027649769584
aF34.31111111111111
aF33.3828125
aF33.390625
aF31.206666666666667
aF28.96153846153846
aF32.671875
aF36.38461538461539
aF32.27272727272727
aF34.895833333333336
aF33.266666666666666
aF29.338709677419356
aF27.6
aF32.1
aF28.223076923076924
aF30.477157360406093
aF33.67391304347826
aF30.968354430379748
aF31.115384615384617
aF29.467741935483872
aF33.05232558139535
aF33.5625
aF32.29042904290429
aF32.74656188605108
aF33.89506172839506
aF31.078740157480315
aF34.97674418604651
aF33.18181818181818
aF29.842105263157894
aF31.178217821782177
aF32.69603524229075
aF28.714285714285715
aF27.555555555555557
aF31.337254901960783
aF36.60634920634921
aF34.25735294117647
aF31.38862559241706
aF34.92929292929293
aF30.605381165919283
aF33.62105263157895
aF36.21641791044776
aF33.61409395973154
aF36.563380281690144
aF28.8
aF40.285714285714285
aF32.23529411764706
aF33.84931506849315
aF30.81896551724138
aF35.85875706214689
aF33.87564766839378
aF39.08024691358025
aF37.07068607068607
aF34.6025641025641
aF30.338912133891213
aF35.45945945945946
aF31.458333333333332
aF33.7007874015748
aF37.44736842105263
aF32.72789115646258
aF32.144329896907216
aF30.662337662337663
aF39.333333333333336
aF38.92
aF30.8659793814433
aF33.10958904109589
aF34.40139211136891
aF34.143478260869564
aF35.26262626262626
aF38.07462686567164
aF36.644295302013425
aF34.49425287356322
aF39.770833333333336
aF34.97872340425532
aF37.13333333333333
aF40.07142857142857
aF35.275862068965516
aF41.14666666666667
aF37.025
aF34.17142857142857
aF32.6
aF35.95
aF36.723214285714285
aF32.90196078431372
aF33.4496644295302
aF35.220238095238095
aF29.6
aF37.414201183431956
aF36.357798165137616
aF34.045833333333334
aF29.712
aF32.453125
aF34.434285714285714
aF33.011428571428574
aF33.13220338983051
aF32.31111111111111
aF29.146341463414632
aF34.69911504424779
aF31.356643356643357
aF32.81274900398407
aF31.65625
aF23.61904761904762
aF28.74418604651163
aF29.166666666666668
aF31.24175824175824
aF34.723404255319146
aF34.6931216931217
aF40.36363636363637
aF31.365384615384617
aF30.798387096774192
aF42.14545454545455
aF36.53846153846154
aF31.817460317460316
aF35.75182481751825
aF32.407407407407405
aF32.096774193548384
aF29.804878048780488
aF30.6
aF25.576923076923077
aF29.5
aF30.430555555555557
aF34.48780487804878
aF32.18556701030928
aF34.746212121212125
aF28.286713286713287
aF36.611111111111114
aF28.5
aF22.3
aF32.035714285714285
aF28.4468085106383
aF26.08108108108108
aF29.6875
aF26.829787234042552
aF31.129411764705882
aF26.741935483870968
aF24.8
aF34.53846153846154
aF36.059701492537314
aF33.73529411764706
aF29.743589743589745
aF27.545454545454547
aF29.26086956521739
aF27.125
aF28.615384615384617
aF34.039603960396036
aF27.976744186046513
aF31.370689655172413
aF34.66
aF35.0990990990991
aF30.258064516129032
aF30.26086956521739
aF32.21153846153846
aF29.091954022988507
aF33.4
aF27.678571428571427
aF37.111111111111114
aF29.0
aF30.338983050847457
aF30.308823529411764
aF32.75
aF28.25
aF27.196428571428573
aF31.962962962962962
aF26.5
aF28.46153846153846
aF30.865168539325843
aF30.22222222222222
aF29.539473684210527
aF31.347058823529412
aF30.786069651741293
aF31.356435643564357
aF31.447674418604652
aF27.877551020408163
aF31.488372093023255
aF31.4375
aF29.62857142857143
aF30.04320987654321
aF30.312883435582823
aF29.526881720430108
aF29.963636363636365
aF39.96774193548387
aF31.36
aF32.671875
aF31.80821917808219
aF31.666666666666668
aF32.70224719101124
aF30.876543209876544
aF27.70754716981132
aF27.192307692307693
aF32.87
aF30.842105263157894
aF33.27058823529412
aF24.03125
aF35.082191780821915
aF35.67768595041322
aF37.618556701030926
aF39.39784946236559
aF30.986928104575163
aF33.13793103448276
aF30.830409356725145
aF37.28358208955224
aF38.300925925925924
aF32.73737373737374
aF31.6
aF30.833333333333332
aF31.6
aF32.214285714285715
aF31.150943396226417
aF33.0
aF34.29012345679013
aF32.04347826086956
aF34.90909090909091
aF34.22222222222222
aF32.66942148760331
aF33.11764705882353
aF33.863247863247864
aF30.88888888888889
aF32.641176470588235
aF29.257575757575758
aF28.25
aF39.5625
aF30.013793103448275
aF27.979166666666668
aF32.74074074074074
aF34.855555555555554
aF38.791666666666664
aF30.178571428571427
aF33.66216216216216
aF34.898648648648646
aF36.83098591549296
aF33.7037037037037
aF32.44705882352941
aF34.84615384615385
aF33.104166666666664
aF30.734375
aF30.55223880597015
aF30.23148148148148
aF32.705882352941174
aF32.0126582278481
aF31.515873015873016
aF35.66494845360825
aF30.356
aF33.99375
aF31.568421052631578
aF38.90384615384615
aF35.87150837988827
aF36.16201117318436
aF42.36507936507937
aF38.7578125
aF35.89711934156379
aF37.35507246376812
aF36.28
aF38.15625
aF38.088235294117645
aF40.13846153846154
aF38.88461538461539
aF41.06
aF37.35820895522388
aF42.33898305084746
aF42.15
aF38.19642857142857
aF42.76271186440678
aF33.87012987012987
aF36.98529411764706
aF37.63815789473684
aF41.29032258064516
aF36.61290322580645
aF32.2520325203252
aF39.26315789473684
aF40.43589743589744
aF39.14754098360656
aF38.294117647058826
aF36.2
aF38.41836734693877
aF32.97674418604651
aF36.570247933884296
aF37.86776859504132
aF38.06936416184971
aF34.91228070175438
aF39.263888888888886
aF38.46111111111111
aF39.07960199004975
aF40.333333333333336
aF40.043956043956044
aF33.69662921348315
aF41.9875
aF38.79032258064516
aF37.983333333333334
aF33.48571428571429
aF38.78658536585366
aF41.06521739130435
aF39.397260273972606
aF37.33064516129032
aF35.733333333333334
aF39.16528925619835
aF39.236559139784944
aF40.0375
aF34.41085271317829
aF33.68181818181818
aF39.733333333333334
aF34.53846153846154
aF29.77777777777778
aF40.4
aF32.6
aF32.13636363636363
aF34.0
aF29.372093023255815
aF27.224489795918366
aF29.431372549019606
aF40.0
aF29.676056338028168
aF27.916666666666668
aF31.598425196850393
aF32.0
aF35.583333333333336
aF31.956521739130434
aF31.172185430463575
aF27.291666666666668
aF27.6
aF31.50793650793651
aF31.00980392156863
aF28.5
aF31.666666666666668
aF35.411764705882355
aF32.58571428571429
aF29.423357664233578
aF30.181818181818183
aF31.016949152542374
aF28.458333333333332
aF31.75862068965517
aF28.185185185185187
aF32.0
aF32.726256983240226
aF28.714285714285715
aF30.43913043478261
aF29.074626865671643
aF33.28
aF29.285714285714285
aF30.75862068965517
aF33.63636363636363
aF28.066666666666666
aF30.363636363636363
aF30.322580645161292
aF29.048780487804876
aF28.5
aF33.21052631578947
aF38.59375
aF31.338983050847457
aF35.714285714285715
aF30.37837837837838
aF35.53164556962025
aF28.05128205128205
aF31.5
aF33.857142857142854
aF30.41089108910891
aF39.74418604651163
aF29.555555555555557
aF32.21910112359551
aF31.22222222222222
aF38.5
aF37.8
aF31.921875
aF31.637795275590552
aF30.014563106796118
aF38.5
aF57.0
aF57.5
aF43.8
aF40.54
aF35.569377990430624
aF40.50617283950617
aF45.74193548387097
aF39.833333333333336
aF38.27272727272727
aF38.8
aF35.5
aF45.46341463414634
aF41.575
aF43.411764705882355
aF43.407407407407405
aF41.94117647058823
aF39.74576271186441
aF35.6875
aF47.27777777777778
aF50.888888888888886
aF32.84375
aF35.348837209302324
aF39.90909090909091
aF32.07692307692308
aF30.17948717948718
aF36.45454545454545
aF29.353658536585368
aF45.25
aF28.613333333333333
aF30.792899408284022
aF37.142857142857146
aF42.29032258064516
aF34.54621848739496
aF42.172413793103445
aF35.391304347826086
aF36.625
aF34.34782608695652
aF32.51648351648352
aF33.921052631578945
aF41.27272727272727
aF40.2
aF35.01219512195122
aF40.515151515151516
aF35.17977528089887
aF40.75
aF36.34285714285714
aF35.592592592592595
aF39.078947368421055
aF38.128571428571426
aF40.56716417910448
aF37.58
aF36.833333333333336
aF32.228070175438596
aF31.055555555555557
aF35.85294117647059
aF38.04081632653061
aF32.030837004405285
aF37.90909090909091
aF38.3206106870229
aF28.139240506329113
aF38.165217391304346
aF34.1437908496732
aF42.30681818181818
aF37.98780487804878
aF39.14655172413793
aF36.869565217391305
aF31.45
aF38.0
aF34.916666666666664
aF34.333333333333336
aF30.076923076923077
aF34.25
aF38.26086956521739
aF28.2
aF32.51162790697674
aF34.791666666666664
aF34.888888888888886
aF33.64935064935065
aF57.0
aF33.75342465753425
aF31.785046728971963
aF29.764705882352942
aF28.703703703703702
aF26.83
aF33.755102040816325
aF31.70414201183432
aF31.261146496815286
aF31.42
aF32.81159420289855
aF33.09090909090909
aF32.747126436781606
aF36.14193548387097
aF27.4375
aF34.353658536585364
aF30.23076923076923
aF36.29545454545455
aF28.615384615384617
aF34.151898734177216
aF29.175
aF34.0
aF33.72549019607843
aF34.46666666666667
aF41.5
aF35.24528301886792
aF41.68421052631579
aF34.416666666666664
aF36.78832116788321
aF32.166666666666664
aF38.4
aF35.37623762376238
aF35.38461538461539
aF27.936708860759495
aF53.0
aF40.549019607843135
aF32.94444444444444
aF36.23076923076923
aF32.02298850574713
aF32.10344827586207
aF32.670731707317074
aF32.75
aF29.482758620689655
aF28.988372093023255
aF25.24074074074074
aF29.551724137931036
aF31.029411764705884
aF32.46052631578947
aF26.875
aF32.214285714285715
aF31.650793650793652
aF29.8
aF32.17283950617284
aF36.708333333333336
aF30.692307692307693
aF32.28888888888889
aF33.333333333333336
aF26.814814814814813
aF32.45985401459854
aF36.8974358974359
aF30.28813559322034
aF26.903225806451612
aF32.13414634146341
aF38.492063492063494
aF29.603448275862068
aF30.56179775280899
aF26.41025641025641
aF37.96739130434783
aF43.875
aF29.159663865546218
aF31.372549019607842
aF31.77848101265823
aF33.588235294117645
aF37.17741935483871
aF31.916666666666668
aF33.58974358974359
aF35.0
aF36.36842105263158
aF30.40625
aF30.7109375
aF34.75
aF29.142857142857142
aF25.181818181818183
aF30.869565217391305
aF27.318181818181817
aF29.608695652173914
aF26.61744966442953
aF31.275862068965516
aF27.53125
aF37.666666666666664
aF29.0
aF30.442307692307693
aF26.714285714285715
aF32.80701754385965
aF28.975609756097562
aF28.571428571428573
aF27.529411764705884
aF25.90625
aF30.923076923076923
aF31.444444444444443
aF28.5
aF32.69736842105263
aF27.483870967741936
aF27.92753623188406
aF30.535714285714285
aF40.2
aF26.08108108108108
aF34.5
aF30.17948717948718
aF33.0
aF32.76923076923077
aF29.0
aF28.595744680851062
aF26.196969696969695
aF28.4
aF36.174418604651166
aF31.1
aF29.282608695652176
aF29.523809523809526
aF32.72222222222222
aF28.903225806451612
aF34.111111111111114
aF40.4
aF26.346153846153847
aF27.0
aF28.625
aF32.44444444444444
aF30.625
aF35.851851851851855
aF29.94
aF31.444444444444443
aF28.161290322580644
aF30.023255813953487
aF30.022222222222222
aF37.44444444444444
aF28.27777777777778
aF34.732142857142854
aF47.0
aF29.732142857142858
aF26.571428571428573
aF32.666666666666664
aF31.72
aF28.925
aF29.333333333333332
aF30.136363636363637
aF52.0
aF35.073170731707314
aF26.775510204081634
aF29.228915662650603
aF29.85
aF27.649122807017545
aF35.30769230769231
aF28.294117647058822
aF47.0
aF30.791208791208792
aF32.45454545454545
aF23.918367346938776
aF29.76
aF42.86666666666667
aF43.19230769230769
aF41.4
aF30.0
aF31.75
aF29.71698113207547
aF30.958333333333332
aF35.2962962962963
aF31.433333333333334
aF29.666666666666668
aF32.35227272727273
aF30.931818181818183
aF38.03636363636364
aF45.111111111111114
aF27.92452830188679
aF45.5
aF31.25
aF47.0
aF26.785714285714285
aF27.5
aF39.878787878787875
aF32.416666666666664
aF47.0
aF31.666666666666668
aF26.6
aF29.3125
aF34.333333333333336
aF33.0
aF47.541666666666664
aF32.91860465116279
aF35.285714285714285
aF33.60504201680672
aF41.833333333333336
aF34.4
aF31.5
aF35.888888888888886
aF31.64
aF31.428571428571427
aF30.580246913580247
aF36.58974358974359
aF33.094339622641506
aF28.27659574468085
aF27.365384615384617
aF31.757575757575758
aF32.97794117647059
aF37.23728813559322
aF29.244444444444444
aF35.85294117647059
aF38.84615384615385
aF29.428571428571427
aF29.153846153846153
aF29.849056603773583
aF36.75
aF35.0
aF39.23076923076923
aF30.023255813953487
aF33.0
aF31.943396226415093
aF27.785714285714285
aF30.526315789473685
aF27.962264150943398
aF38.90909090909091
aF51.0
aF36.53448275862069
aF40.333333333333336
aF41.166666666666664
aF27.666666666666668
aF37.5
aF39.111111111111114
aF36.85
aF33.18518518518518
aF38.142857142857146
aF39.0
aF26.65
aF38.46153846153846
aF42.5
aF47.5
aF35.44444444444444
aF48.5
aF33.90909090909091
aF34.23076923076923
aF31.166666666666668
aF26.142857142857142
aF32.625
aF30.3125
aF34.4
aF36.78260869565217
aF31.147058823529413
aF38.793103448275865
aF33.188235294117646
aF31.941176470588236
aF29.10891089108911
aF39.5
aF28.192307692307693
aF31.7
aF31.8375
aF30.105263157894736
aF28.55
aF32.61904761904762
aF33.279411764705884
aF41.142857142857146
aF36.34375
aF34.32432432432432
aF29.24
aF29.933333333333334
aF24.8125
aF25.891304347826086
aF34.8
aF26.225
aF29.3953488372093
aF38.25
aF27.737704918032787
aF29.705882352941178
aF28.1875
aF31.140845070422536
aF37.8
aF33.0
aF28.88888888888889
aF34.5
aF41.90909090909091
aF29.20408163265306
aF37.43478260869565
aF28.5
aF35.0
aF27.140625
aF31.48
aF34.529411764705884
aF40.30434782608695
aF36.51219512195122
aF35.333333333333336
aF42.285714285714285
aF33.65384615384615
aF34.083333333333336
aF42.72222222222222
aF31.253333333333334
aF41.0
aF36.911764705882355
aF37.142857142857146
aF38.0
aF28.75
aF26.113636363636363
aF25.666666666666668
aF30.73469387755102
aF32.03703703703704
aF29.142857142857142
aF30.772727272727273
aF26.0
aF29.9
aF31.0
aF36.29545454545455
aF33.77272727272727
aF30.52173913043478
aF23.5
aF33.24418604651163
aF33.53125
aF36.63636363636363
aF32.76
aF23.25
aF29.0
aF26.0
aF36.0
aF30.5
aF27.8125
aF27.1875
aF25.4
aF25.3
aF27.764705882352942
aF24.125
aF39.375
aF28.555555555555557
aF37.04545454545455
aF30.304347826086957
aF31.4468085106383
aF32.08108108108108
aF33.953125
aF31.295454545454547
aF30.838709677419356
aF29.1
aF29.763157894736842
aF29.122448979591837
aF34.5
aF29.226277372262775
aF30.12
aF34.65625
aF27.838709677419356
aF37.74285714285714
aF40.18421052631579
aF34.8125
aF31.225806451612904
aF35.2
aF35.22727272727273
aF21.25
aF26.0
aF32.722972972972975
aF27.428571428571427
aF33.35
aF27.571428571428573
aF29.125
aF32.28125
aF28.88888888888889
aF28.86764705882353
aF26.291666666666668
aF29.0
aF32.470588235294116
aF31.855555555555554
aF30.12
aF33.354838709677416
aF30.678571428571427
aF26.5
aF30.475
aF35.2
aF30.347826086956523
aF29.64179104477612
aF30.63013698630137
aF30.4
aF40.395348837209305
aF30.195121951219512
aF27.0
aF26.083333333333332
aF26.869565217391305
aF24.2
aF28.6
aF27.772727272727273
aF23.666666666666668
aF25.8
aF31.53846153846154
aF33.62068965517241
aF32.833333333333336
aF34.24390243902439
aF47.75
aF36.35849056603774
aF29.9375
aF28.522727272727273
aF40.666666666666664
aF29.61111111111111
aF31.59259259259259
aF27.0
aF31.857142857142858
aF29.0
aF28.68831168831169
aF36.285714285714285
aF28.75
aF24.5
aF29.727272727272727
aF28.822222222222223
aF35.0
aF23.75
aF31.125
aF25.5
aF32.0
aF30.636363636363637
aF33.142857142857146
aF31.0
aF24.153846153846153
aF31.526315789473685
aF27.43243243243243
aF28.651162790697676
aF28.5
aF31.47826086956522
aF24.666666666666668
aF22.620689655172413
aF21.666666666666668
aF29.944444444444443
aF30.095238095238095
aF34.61538461538461
aF36.375
aF34.66216216216216
aF33.857142857142854
aF29.473684210526315
aF24.75
aF35.5
aF39.5
aF38.833333333333336
aF37.2
aF32.714285714285715
aF30.170731707317074
aF38.42857142857143
aF34.93333333333333
aF36.31818181818182
aF34.9
aF34.689655172413794
aF37.0
aF38.1578947368421
aF33.680851063829785
aF28.322033898305083
aF37.588235294117645
aF49.904761904761905
aF50.0
aF53.666666666666664
aF42.25
aF46.5
aF46.0
aF34.18181818181818
aF36.76923076923077
aF32.07142857142857
aF27.0
aF32.69230769230769
aF31.4375
aF32.36666666666667
aF33.55263157894737
aF31.02173913043478
aF32.58620689655172
aF35.0
aF35.4
aF30.393939393939394
aF33.94117647058823
aF37.333333333333336
aF35.25
aF32.8
aF31.666666666666668
aF26.11111111111111
aF22.333333333333332
aF38.095238095238095
aF31.22222222222222
aF39.65384615384615
aF28.333333333333332
aF24.0
aF27.5
aF32.21052631578947
aF35.166666666666664
aF46.333333333333336
aF20.0
aF23.96
aF43.75
aF29.90909090909091
aF33.5
aF31.076923076923077
aF33.6
aF32.32
aF40.5
aF26.0
aF35.25
aF35.63636363636363
aF31.545454545454547
aF39.2
aF31.59259259259259
aF42.57142857142857
aF37.93333333333333
aF37.142857142857146
aF41.75
aF23.0
aF36.13636363636363
aF33.42857142857143
aF25.94736842105263
aF25.0
aF28.0
aF28.0
aF26.692307692307693
aF30.05263157894737
aF36.6
aF26.5
aF52.333333333333336
aF28.0
aF25.363636363636363
aF29.0
aF33.27272727272727
aF33.333333333333336
aF38.46153846153846
aF41.7
aF36.70967741935484
aF37.18181818181818
aF46.0
aF35.333333333333336
aF40.714285714285715
aF30.17391304347826
aF46.857142857142854
aF60.0
aF36.5
aF43.285714285714285
aF42.0
aF48.333333333333336
aF29.68421052631579
aF27.941176470588236
aF27.35
aF25.333333333333332
aF26.05263157894737
aF40.0
aF28.166666666666668
aF33.833333333333336
aF35.111111111111114
aF27.433333333333334
aF32.833333333333336
aF26.205128205128204
aF23.192307692307693
aF28.35
aF26.1
aF29.897435897435898
aF27.36
aF33.0
aF25.416666666666668
aF24.714285714285715
aF33.6875
aF31.625
aF27.5
aF24.53846153846154
aF27.055555555555557
aF27.136363636363637
aF29.823529411764707
aF29.166666666666668
aF31.125
aF36.0
aF36.0
aF22.833333333333332
aF43.625
aF25.38888888888889
aF25.73076923076923
aF30.333333333333332
aF41.4
aF39.714285714285715
aF30.055555555555557
aF28.210526315789473
aF23.285714285714285
aF28.5
aF31.36842105263158
aF26.0
aF24.5
aF41.875
aF33.888888888888886
aF26.571428571428573
aF30.90909090909091
aF38.625
aF37.0
aF41.75
aF31.0
aF31.75
aF27.5
aF34.0
aF29.75
aF38.46666666666667
aF26.857142857142858
aF37.8421052631579
aF45.833333333333336
aF27.393939393939394
aF33.8
aF44.3
aF26.571428571428573
aF32.42857142857143
aF30.2
aF27.866666666666667
aF29.363636363636363
aF25.25
aF20.375
aF28.63157894736842
aF32.8125
aF29.0
aF30.9375
aF37.0
aF36.111111111111114
aF30.42105263157895
aF32.15384615384615
aF34.8
aF34.05882352941177
aF21.666666666666668
aF34.714285714285715
aF28.428571428571427
aF26.5
aF27.466666666666665
aF26.333333333333332
aF40.666666666666664
aF35.0
aF31.142857142857142
aF30.25
aF31.25
aF39.666666666666664
aF39.5
aF24.666666666666668
aF28.8
aF37.0
aF26.88888888888889
aF31.0
aF31.714285714285715
aF29.5
aF29.5
aF29.5
aF37.0
aF37.0
aF32.5
aF29.285714285714285
aF34.57142857142857
aF21.363636363636363
aF27.73913043478261
aF33.142857142857146
aF29.5
aF23.666666666666668
aF40.75
aF26.0
aF29.5
aF36.5
aF39.666666666666664
aF24.8
aF26.0
aF26.166666666666668
aF24.0
aF34.833333333333336
aF26.0
aF43.5
aF41.0
aF32.5
aF30.8
aF24.0
aF33.63636363636363
aF30.8
aF26.444444444444443
aF34.75
aF26.0
aF26.0
aF26.0
aF40.5
aF26.0
aF39.8
aF28.5
aF35.2
aF46.5
aF26.0
aF26.0
aF32.5
aF34.666666666666664
aF26.0
aF31.0
aF28.0
aF37.333333333333336
aF31.333333333333332
aF27.0
aF30.0
aF24.0
aF37.0
aF30.0
aF35.5
aF26.0
aF26.0
aF24.0
aF26.0
aF28.4
aF36.833333333333336
aF43.25
aF33.333333333333336
aF25.5
aF27.0
aF26.0
aF28.0
aF34.8
aF26.142857142857142
aF29.0
aF31.4
aF37.142857142857146
aF40.0
aF40.75
aF24.75
aF28.833333333333332
aF23.0
aF29.0
aF29.666666666666668
aF23.0
aF38.833333333333336
aF28.333333333333332
aF23.5
aF23.0
aF27.8
aF28.333333333333332
aF29.571428571428573
aF27.166666666666668
aF37.4
aF48.4
aF32.0
aF45.857142857142854
aF34.6
aF34.27777777777778
aF32.5
aF41.0
aF34.38461538461539
aF34.5
aF35.2
aF29.65
aF28.333333333333332
aF27.714285714285715
aF29.5
aF34.535714285714285
aF27.166666666666668
aF27.875
aF42.0
aF25.555555555555557
aF28.4
aF31.5
aF39.666666666666664
aF28.9375
aF40.0
aF37.18181818181818
aF24.75
aF22.5
aF28.0
aF31.4
aF27.875
aF29.2
aF26.75
aF24.0
aF32.666666666666664
aF27.8
aF22.333333333333332
aF16.0
aF28.0
aF29.714285714285715
aF44.5
aF25.88888888888889
aF28.8
aF32.75
aF25.2
aF26.857142857142858
aF27.2
aF36.75
aF33.63157894736842
aF42.0
aF28.466666666666665
aF60.0
aF53.0
aF48.375
aF50.0
aF42.0
aF60.0
aF60.0
aF53.0
aF60.0
aF44.57142857142857
aF60.0
aF60.0
aF35.285714285714285
aF60.0
aF60.0
aF41.0
aF61.333333333333336
aF26.0
aF41.666666666666664
aF32.0
aF24.0
aF20.833333333333332
aF25.333333333333332
aF32.2
aF23.666666666666668
aF33.5
aF28.0
aF35.166666666666664
aF39.625
aF24.0
aF22.5
aF27.444444444444443
aF35.375
aF27.181818181818183
aF27.0
aF21.0
aF32.583333333333336
aF26.666666666666668
aF36.25
aF33.0
aF31.0
aF40.75
aF28.2
aF39.333333333333336
aF27.0
aF33.0
aF33.0
aF33.0
aF27.0
aF20.6
aF26.0
aF33.0
aF35.25
aF26.5
aF45.2
aF23.5
aF25.9
aF29.666666666666668
aF19.0
aF38.333333333333336
aF29.0
aF25.666666666666668
aF24.0
aF19.0
aF31.2
aF40.166666666666664
aF26.666666666666668
aF32.142857142857146
aF60.0
aF39.333333333333336
aF27.6
aF32.416666666666664
aF21.0
aF20.0
aF37.25
aF30.571428571428573
aF41.5
aF40.0
aF32.0
aF35.0
aF27.857142857142858
aF22.333333333333332
aF31.0
aF34.6
aF26.714285714285715
aF41.5
aF33.0
aF27.833333333333332
aF44.25
aF36.0
aF40.25
aF34.666666666666664
aF27.0
aF28.0
aF36.5
aF27.0
aF25.0
aF27.666666666666668
aF38.5
aF22.0
aF23.0
aF22.0
aF36.0
aF24.5
aF23.0
aF23.666666666666668
aF38.0
aF36.0
aF25.0
aF45.5
aF22.0
aF42.285714285714285
aF22.0
aF43.75
aF22.0
aF22.0
aF22.0
aF22.0
aF22.0
aF22.0
aF22.0
aF22.0
aF22.0
aF22.0
aF22.0
aF22.0
aF40.0
aF22.0
aF22.0
aF22.0
aF22.0
aF36.0
aF22.0
aF22.0
aF22.0
aF22.0
aF22.0
aF22.0
aF36.0
aF22.0
aF22.0
aF21.5
aF26.5
aF21.5
aF29.166666666666668
aF40.8
aF48.0
aF20.0
aF19.0
aF19.0
aF25.8
aF31.0
aF27.0
aF30.25
aF21.0
aF47.666666666666664
aF35.0
aF24.0
aF39.25
aF48.0
aF29.666666666666668
aF30.25
aF26.0
aF37.0
aF30.0
aF33.5
aF55.0
aF21.0
aF31.4
aF28.0
aF26.5
aF18.0
aF33.0
aF27.333333333333332
aF25.0
aF32.0
aF45.666666666666664
aF26.0
aF26.0
aF43.0
aF42.0
aF43.5
aF38.5
aF50.0
aF34.5
aF50.0
aF50.0
aF50.0
aF50.0
aF50.0
aF50.0
aF50.0
aF43.0
aF50.0
aF50.0
aF53.0
aF38.25
aF35.5
aF50.0
aF39.0
aF50.0
aF50.0
aF50.0
aF50.0
aF50.0
aF35.333333333333336
aF34.0
aF30.0
aF23.0
aF45.5
aF25.0
aF37.333333333333336
aF19.0
aF19.0
aF24.0
aF26.5
aF21.0
aF23.5
aF21.0
aF21.0
aF21.0
aF21.0
aF21.0
aF21.0
aF18.0
aF28.0
aF44.0
aF39.0
aF18.0
aF18.0
aF29.0
aF17.0
aF17.0
aF17.0
aF28.0
aF27.0
a.