(lp0
F3.8783185840707963
aF3.2061068702290076
aF3.033333333333333
aF3.550239234449761
aF3.302325581395349
aF3.576923076923077
aF3.798469387755102
aF3.9954337899543377
aF3.8963210702341136
aF3.831460674157303
aF3.847457627118644
aF4.385767790262173
aF3.4184782608695654
aF3.9672131147540983
aF3.7781569965870307
aF3.2051282051282053
aF3.119565217391304
aF2.8
aF3.9565217391304346
aF3.4166666666666665
aF2.761904761904762
aF4.151515151515151
aF4.1208791208791204
aF3.4482758620689653
aF3.4436860068259385
aF3.452054794520548
aF3.1052631578947367
aF3.931159420289855
aF2.6666666666666665
aF3.945945945945946
aF3.6298701298701297
aF3.7901234567901234
aF3.4536082474226806
aF2.7142857142857144
aF2.1818181818181817
aF2.1538461538461537
aF2.25
aF3.0083333333333333
aF3.264367816091954
aF2.8947368421052633
aF3.081081081081081
aF3.804054054054054
aF3.0
aF3.3417721518987342
aF4.05
aF3.5555555555555554
aF3.601503759398496
aF4.094017094017094
aF3.3209876543209877
aF4.3584905660377355
aF3.45679012345679
aF3.769230769230769
aF2.953125
aF3.2403846153846154
aF3.704697986577181
aF4.060913705583756
aF4.0
aF3.645714285714286
aF4.0602409638554215
aF4.015625
aF3.864406779661017
aF3.141732283464567
aF3.097560975609756
aF4.445229681978798
aF3.5391304347826087
aF3.549382716049383
aF3.0485436893203883
aF3.417910447761194
aF3.853582554517134
aF3.6613545816733066
aF3.7818181818181817
aF3.193798449612403
aF3.46875
aF3.0
aF3.0
aF3.4074074074074074
aF3.2781456953642385
aF2.4545454545454546
aF4.044642857142857
aF2.764705882352941
aF3.5545454545454547
aF3.7203065134099615
aF4.0625
aF3.0
aF3.0344827586206895
aF3.94
aF3.9057971014492754
aF3.539906103286385
aF4.138181818181818
aF3.0526315789473686
aF3.5874125874125875
aF3.6153846153846154
aF3.7232142857142856
aF3.0875912408759123
aF3.8127853881278537
aF4.0067796610169495
aF3.79296875
aF4.28974358974359
aF3.7093023255813953
aF4.155511811023622
aF3.26027397260274
aF3.1296296296296298
aF1.8666666666666667
aF1.4
aF2.5675675675675675
aF2.887323943661972
aF3.5
aF3.076923076923077
aF3.4307692307692306
aF2.5161290322580645
aF3.485294117647059
aF2.45
aF4.111111111111111
aF4.447761194029851
aF3.7333333333333334
aF3.824
aF3.693121693121693
aF3.2150170648464163
aF4.5
aF2.2388059701492535
aF3.438228438228438
aF2.339622641509434
aF3.234782608695652
aF4.053475935828877
aF3.557377049180328
aF3.804123711340206
aF4.283292978208232
aF3.5384615384615383
aF3.8217054263565893
aF2.260869565217391
aF3.7263157894736842
aF4.0772357723577235
aF3.871345029239766
aF4.292929292929293
aF3.969111969111969
aF4.123809523809523
aF3.9005847953216373
aF2.5789473684210527
aF2.78
aF3.2131147540983607
aF3.5
aF3.0701754385964914
aF3.765765765765766
aF3.8724279835390947
aF2.4461538461538463
aF2.5
aF3.4702702702702704
aF3.203125
aF3.0
aF3.828025477707006
aF3.6319018404907975
aF3.6341463414634148
aF3.785425101214575
aF3.7471264367816093
aF3.1020408163265305
aF3.9864864864864864
aF3.6929133858267718
aF2.6166666666666667
aF3.227722772277228
aF3.463768115942029
aF3.481818181818182
aF3.556603773584906
aF3.5543478260869565
aF3.589403973509934
aF4.109375
aF4.120689655172414
aF2.955223880597015
aF4.0664556962025316
aF4.466101694915254
aF4.1735537190082646
aF3.876923076923077
aF4.204359673024523
aF4.172839506172839
aF4.252380952380952
aF3.8173076923076925
aF3.9471830985915495
aF3.8613138686131387
aF4.344
aF3.909502262443439
aF4.04524886877828
aF4.007889546351085
aF3.9513274336283186
aF4.034364261168385
aF3.4310344827586206
aF4.100418410041841
aF3.8366533864541834
aF4.186602870813397
aF3.6823529411764704
aF4.106060606060606
aF4.137096774193548
aF4.163043478260869
aF4.120689655172414
aF3.917197452229299
aF4.058091286307054
aF3.9335548172757475
aF3.9163346613545817
aF4.104602510460251
aF4.0078740157480315
aF4.175757575757576
aF3.825242718446602
aF3.5168539325842696
aF3.7642857142857142
aF3.868131868131868
aF3.834285714285714
aF3.9926470588235294
aF3.38
aF3.8181818181818183
aF3.945
aF3.905759162303665
aF3.930513595166163
aF3.912621359223301
aF3.4565217391304346
aF3.985074626865672
aF3.3508771929824563
aF3.69811320754717
aF3.910344827586207
aF3.158333333333333
aF3.456140350877193
aF3.171171171171171
aF3.3636363636363638
aF3.72972972972973
aF3.66027397260274
aF4.198529411764706
aF3.7045454545454546
aF2.908256880733945
aF3.355421686746988
aF3.279503105590062
aF3.8155737704918034
aF3.111111111111111
aF3.4472361809045227
aF2.683098591549296
aF3.207920792079208
aF3.2903225806451615
aF3.775
aF2.847926267281106
aF3.6222222222222222
aF3.7109375
aF3.875
aF3.513333333333333
aF2.7884615384615383
aF3.546875
aF3.9914529914529915
aF2.4393939393939394
aF3.1666666666666665
aF3.1083333333333334
aF3.935483870967742
aF1.8
aF3.675
aF3.246153846153846
aF3.4771573604060912
aF4.260869565217392
aF2.9430379746835444
aF3.6923076923076925
aF2.4516129032258065
aF3.36046511627907
aF3.5625
aF3.745874587458746
aF3.8035363457760316
aF2.685185185185185
aF2.574803149606299
aF2.558139534883721
aF3.712121212121212
aF2.1578947368421053
aF2.742574257425743
aF3.8634361233480177
aF2.7142857142857144
aF3.4444444444444446
aF3.792156862745098
aF3.926984126984127
aF3.5955882352941178
aF3.2322274881516586
aF4.262626262626263
aF3.569506726457399
aF3.5
aF4.0111940298507465
aF3.697986577181208
aF3.464788732394366
aF3.2333333333333334
aF3.2857142857142856
aF3.1882352941176473
aF3.143835616438356
aF3.685344827586207
aF3.7175141242937855
aF3.160621761658031
aF4.265432098765432
aF3.656964656964657
aF3.58974358974359
aF3.4414225941422596
aF2.9806949806949805
aF3.1145833333333335
aF3.37007874015748
aF3.6666666666666665
aF3.802721088435374
aF3.156701030927835
aF3.4025974025974026
aF3.3333333333333335
aF3.96
aF3.768041237113402
aF2.9315068493150687
aF3.6310904872389793
aF3.3043478260869565
aF4.161616161616162
aF3.6865671641791047
aF3.5369127516778525
aF3.6436781609195403
aF3.9479166666666665
aF3.515957446808511
aF2.966666666666667
aF2.857142857142857
aF3.6
aF3.68
aF3.1625
aF4.2457142857142856
aF1.0
aF4.1
aF4.196428571428571
aF3.911764705882353
aF4.466442953020135
aF3.2738095238095237
aF4.05
aF3.1301775147928996
aF3.0871559633027523
aF2.933333333333333
aF3.136
aF2.546875
aF3.36
aF3.3771428571428572
aF3.4237288135593222
aF3.3333333333333335
aF3.024390243902439
aF3.5398230088495577
aF3.4615384615384617
aF3.593625498007968
aF3.359375
aF2.761904761904762
aF2.627906976744186
aF3.0
aF2.659340659340659
aF3.25531914893617
aF3.5873015873015874
aF3.090909090909091
aF2.923076923076923
aF3.096774193548387
aF3.6545454545454548
aF3.4
aF3.642857142857143
aF3.510948905109489
aF3.2962962962962963
aF2.903225806451613
aF3.1463414634146343
aF2.7
aF2.1153846153846154
aF2.4285714285714284
aF3.486111111111111
aF2.926829268292683
aF3.381443298969072
aF4.291666666666667
aF2.6153846153846154
aF3.5
aF3.2
aF3.5
aF2.8214285714285716
aF2.723404255319149
aF2.675675675675676
aF3.2083333333333335
aF3.3404255319148937
aF3.458823529411765
aF1.903225806451613
aF2.6363636363636362
aF2.8205128205128207
aF3.1641791044776117
aF3.5294117647058822
aF2.8974358974358974
aF2.272727272727273
aF1.9565217391304348
aF2.8333333333333335
aF2.1538461538461537
aF3.722772277227723
aF2.9767441860465116
aF3.336206896551724
aF3.55
aF3.5945945945945947
aF2.064516129032258
aF2.782608695652174
aF3.5625
aF2.8160919540229883
aF3.3846153846153846
aF2.392857142857143
aF3.4444444444444446
aF3.2
aF2.7457627118644066
aF3.5441176470588234
aF3.4114583333333335
aF3.3333333333333335
aF2.5892857142857144
aF2.814814814814815
aF2.5833333333333335
aF2.076923076923077
aF3.303370786516854
aF2.7222222222222223
aF2.8026315789473686
aF3.4647058823529413
aF3.427860696517413
aF3.6732673267326734
aF3.313953488372093
aF2.4489795918367347
aF2.511627906976744
aF4.491071428571429
aF3.142857142857143
aF3.1296296296296298
aF2.914110429447853
aF2.3978494623655915
aF2.6363636363636362
aF3.532258064516129
aF2.84
aF3.484375
aF3.095890410958904
aF3.5813953488372094
aF3.7247191011235956
aF3.6666666666666665
aF3.5943396226415096
aF2.8461538461538463
aF3.8333333333333335
aF1.3157894736842106
aF3.7411764705882353
aF2.84375
aF4.292237442922374
aF3.8181818181818183
aF3.9381443298969074
aF4.0
aF3.5359477124183005
aF3.7701149425287355
aF3.690058479532164
aF3.8358208955223883
aF3.949074074074074
aF3.5353535353535355
aF1.0
aF1.1666666666666667
aF1.0
aF1.6428571428571428
aF2.5660377358490565
aF1.25
aF3.808641975308642
aF2.717391304347826
aF3.5
aF2.4444444444444446
aF3.5041322314049586
aF3.388235294117647
aF3.034188034188034
aF2.3968253968253967
aF3.347058823529412
aF2.6666666666666665
aF1.9375
aF2.875
aF3.2551724137931033
aF2.3125
aF1.7407407407407407
aF3.1222222222222222
aF3.75
aF3.0
aF3.6216216216216215
aF3.804054054054054
aF3.859154929577465
aF3.5925925925925926
aF3.5647058823529414
aF3.5961538461538463
aF3.7916666666666665
aF3.3125
aF3.7761194029850746
aF3.6666666666666665
aF3.6108597285067874
aF3.0822784810126582
aF3.126984126984127
aF4.252577319587629
aF3.884
aF3.01875
aF3.210526315789474
aF4.115384615384615
aF4.251396648044692
aF4.284916201117318
aF3.9365079365079363
aF3.984375
aF4.45679012345679
aF4.2101449275362315
aF3.816
aF3.796875
aF4.102941176470588
aF4.2
aF4.115384615384615
aF4.02
aF3.791044776119403
aF3.864406779661017
aF4.15
aF4.0
aF3.6610169491525424
aF4.121212121212121
aF3.838235294117647
aF4.184210526315789
aF3.9516129032258065
aF3.903225806451613
aF3.4959349593495936
aF3.7017543859649122
aF3.641025641025641
aF3.819672131147541
aF4.0
aF3.8555555555555556
aF3.816326530612245
aF3.5953488372093023
aF3.8512396694214877
aF3.9421487603305785
aF4.23121387283237
aF4.0
aF4.333333333333333
aF3.911111111111111
aF4.203980099502488
aF3.9682539682539684
aF3.769230769230769
aF3.651685393258427
aF4.1
aF4.104838709677419
aF3.8333333333333335
aF3.7714285714285714
aF3.9939024390243905
aF4.021739130434782
aF4.027397260273973
aF3.8306451612903225
aF4.02051282051282
aF4.132231404958677
aF3.978494623655914
aF4.025
aF3.9224806201550386
aF3.3181818181818183
aF3.6666666666666665
aF3.3076923076923075
aF3.1666666666666665
aF3.3
aF3.6333333333333333
aF3.4242424242424243
aF2.477272727272727
aF2.511627906976744
aF2.877551020408163
aF2.5294117647058822
aF3.619047619047619
aF3.1549295774647885
aF1.8333333333333333
aF3.031496062992126
aF3.341463414634146
aF2.1666666666666665
aF3.5652173913043477
aF3.2847682119205297
aF2.4166666666666665
aF2.8666666666666667
aF3.2857142857142856
aF2.803921568627451
aF2.0
aF2.5
aF3.1176470588235294
aF3.6714285714285713
aF3.1824817518248176
aF2.727272727272727
aF3.0677966101694913
aF3.2083333333333335
aF2.413793103448276
aF2.037037037037037
aF2.6818181818181817
aF3.569832402234637
aF2.8
aF3.6478260869565218
aF2.701492537313433
aF3.1
aF2.5
aF2.7586206896551726
aF2.9393939393939394
aF2.2
aF2.5454545454545454
aF3.021505376344086
aF2.2195121951219514
aF3.152173913043478
aF2.6315789473684212
aF3.375
aF3.2203389830508473
aF3.6011904761904763
aF3.0
aF3.5443037974683542
aF2.4871794871794872
aF2.676470588235294
aF3.5714285714285716
aF3.792079207920792
aF4.023255813953488
aF2.0
aF3.601123595505618
aF3.3333333333333335
aF3.1666666666666665
aF2.4
aF3.09375
aF3.377952755905512
aF3.150485436893204
aF2.25
aF1.0
aF3.0
aF4.0
aF3.7
aF4.3875598086124405
aF4.012345679012346
aF3.3548387096774195
aF4.045454545454546
aF3.9696969696969697
aF3.933333333333333
aF3.5833333333333335
aF3.658536585365854
aF4.1
aF3.9411764705882355
aF4.037037037037037
aF3.7450980392156863
aF4.0508474576271185
aF3.421875
aF3.7777777777777777
aF3.611111111111111
aF3.171875
aF3.0930232558139537
aF2.909090909090909
aF3.358974358974359
aF2.923076923076923
aF3.272727272727273
aF3.3292682926829267
aF3.25
aF3.2266666666666666
aF3.514792899408284
aF3.3376623376623376
aF3.2903225806451615
aF3.6218487394957983
aF3.896551724137931
aF4.057971014492754
aF3.75
aF2.739130434782609
aF3.241758241758242
aF3.026315789473684
aF3.772727272727273
aF3.7
aF3.024390243902439
aF4.212121212121212
aF3.4831460674157304
aF3.0
aF3.7714285714285714
aF3.814814814814815
aF3.8684210526315788
aF4.1
aF4.029850746268656
aF3.4
aF3.5416666666666665
aF4.076023391812866
aF3.888888888888889
aF3.911764705882353
aF4.136054421768708
aF3.881057268722467
aF4.0
aF4.259541984732825
aF3.4177215189873418
aF4.078260869565217
aF3.764705882352941
aF4.1022727272727275
aF3.426829268292683
aF3.9051724137931036
aF3.5434782608695654
aF2.83
aF2.4
aF2.1666666666666665
aF2.1666666666666665
aF1.6153846153846154
aF3.0
aF3.608695652173913
aF2.723076923076923
aF3.5232558139534884
aF2.8958333333333335
aF3.5555555555555554
aF3.3376623376623376
aF3.0
aF2.808219178082192
aF3.046728971962617
aF2.5588235294117645
aF2.4444444444444446
aF3.06
aF2.4081632653061225
aF3.7928994082840237
aF3.356687898089172
aF3.68
aF2.1884057971014492
aF1.8409090909090908
aF3.1494252873563218
aF3.458064516129032
aF3.5
aF3.6280487804878048
aF3.6483516483516483
aF4.045454545454546
aF2.923076923076923
aF3.1392405063291138
aF3.425
aF3.0
aF3.676470588235294
aF2.6
aF4.0
aF3.018867924528302
aF3.5789473684210527
aF3.0416666666666665
aF3.9927007299270074
aF2.6666666666666665
aF3.9285714285714284
aF3.4752475247524752
aF4.028846153846154
aF3.569620253164557
aF4.0
aF3.0784313725490198
aF3.611111111111111
aF3.230769230769231
aF3.2758620689655173
aF3.1551724137931036
aF2.817073170731707
aF3.6875
aF2.413793103448276
aF3.0232558139534884
aF3.4444444444444446
aF2.9310344827586206
aF3.1470588235294117
aF3.486842105263158
aF2.75
aF2.4285714285714284
aF3.4603174603174605
aF3.022222222222222
aF3.4814814814814814
aF3.5
aF3.1538461538461537
aF3.65
aF3.2
aF2.5185185185185186
aF3.854014598540146
aF3.9358974358974357
aF2.983050847457627
aF2.838709677419355
aF3.323170731707317
aF3.4761904761904763
aF3.4482758620689653
aF3.644194756554307
aF1.9487179487179487
aF3.4565217391304346
aF3.875
aF3.6638655462184873
aF3.4607843137254903
aF3.1234177215189876
aF3.176470588235294
aF3.8548387096774195
aF3.4277777777777776
aF3.3076923076923075
aF3.7083333333333335
aF3.3859649122807016
aF3.3125
aF2.8984375
aF2.75
aF1.7142857142857142
aF2.1818181818181817
aF2.652173913043478
aF3.0454545454545454
aF3.391304347826087
aF3.389261744966443
aF2.7586206896551726
aF2.8125
aF3.111111111111111
aF2.1818181818181817
aF3.076923076923077
aF2.4523809523809526
aF3.3859649122807016
aF2.6341463414634148
aF3.061224489795918
aF2.9411764705882355
aF2.9375
aF2.769230769230769
aF3.2222222222222223
aF1.25
aF3.5526315789473686
aF2.5483870967741935
aF3.0
aF3.3333333333333335
aF2.6
aF2.72972972972973
aF1.0
aF3.1538461538461537
aF2.642857142857143
aF3.230769230769231
aF1.6666666666666667
aF3.574468085106383
aF2.909090909090909
aF2.5
aF3.7209302325581395
aF3.5
aF3.652173913043478
aF2.4285714285714284
aF3.0833333333333335
aF3.096774193548387
aF2.2222222222222223
aF3.2
aF2.8846153846153846
aF2.8125
aF2.7
aF2.5555555555555554
aF2.875
aF3.6296296296296298
aF3.46
aF2.7777777777777777
aF2.838709677419355
aF2.9069767441860463
aF2.888888888888889
aF3.9444444444444446
aF3.111111111111111
aF3.892857142857143
aF5.0
aF3.232142857142857
aF2.4285714285714284
aF2.6666666666666665
aF2.76
aF2.7
aF2.774193548387097
aF3.0454545454545454
aF3.0
aF2.8780487804878048
aF2.7551020408163267
aF3.036144578313253
aF2.575
aF2.7719298245614037
aF2.6923076923076925
aF2.6470588235294117
aF1.0
aF2.4615384615384617
aF2.5454545454545454
aF3.204081632653061
aF2.2
aF3.8666666666666667
aF3.769230769230769
aF3.92
aF2.75
aF2.5
aF2.660377358490566
aF2.75
aF3.1481481481481484
aF3.0
aF3.357142857142857
aF3.465909090909091
aF3.0681818181818183
aF3.727272727272727
aF3.5555555555555554
aF2.7169811320754715
aF4.0
aF3.75
aF1.0
aF3.857142857142857
aF3.375
aF3.727272727272727
aF3.8333333333333335
aF3.0
aF1.0
aF2.6666666666666665
aF2.25
aF2.3333333333333335
aF2.111111111111111
aF3.9166666666666665
aF3.1627906976744184
aF3.4761904761904763
aF3.319327731092437
aF4.0
aF3.8
aF3.0
aF2.7777777777777777
aF2.4
aF3.0952380952380953
aF2.962962962962963
aF3.2564102564102564
aF2.7358490566037736
aF2.702127659574468
aF2.5384615384615383
aF2.515151515151515
aF3.2720588235294117
aF3.169491525423729
aF2.933333333333333
aF3.2941176470588234
aF3.230769230769231
aF3.2857142857142856
aF2.230769230769231
aF3.0754716981132075
aF3.609375
aF3.466666666666667
aF3.3846153846153846
aF1.9534883720930232
aF2.6666666666666665
aF2.7547169811320753
aF2.4285714285714284
aF1.894736842105263
aF3.2169811320754715
aF3.772727272727273
aF1.5
aF3.2241379310344827
aF3.4444444444444446
aF3.6904761904761907
aF1.9166666666666667
aF3.8333333333333335
aF3.111111111111111
aF3.45
aF3.2222222222222223
aF3.1904761904761907
aF2.0
aF2.5
aF3.769230769230769
aF2.0
aF2.5
aF3.0
aF2.5
aF2.727272727272727
aF3.923076923076923
aF3.1666666666666665
aF3.4285714285714284
aF3.0
aF3.7916666666666665
aF2.2
aF3.9782608695652173
aF3.823529411764706
aF4.155172413793103
aF3.4
aF3.323529411764706
aF2.702970297029703
aF3.1666666666666665
aF3.1153846153846154
aF2.7
aF2.7
aF2.1578947368421053
aF2.925
aF2.4285714285714284
aF2.926470588235294
aF3.2857142857142856
aF3.9375
aF3.4054054054054053
aF2.88
aF3.6
aF2.34375
aF3.0652173913043477
aF3.488888888888889
aF3.475
aF3.0
aF3.925
aF3.1475409836065573
aF3.235294117647059
aF2.1666666666666665
aF3.3380281690140845
aF2.9
aF2.8205128205128207
aF3.1777777777777776
aF3.3181818181818183
aF3.5454545454545454
aF3.4081632653061225
aF3.608695652173913
aF2.0
aF3.7857142857142856
aF3.46875
aF3.24
aF3.6176470588235294
aF3.130434782608696
aF4.2926829268292686
aF3.3333333333333335
aF3.6666666666666665
aF4.1923076923076925
aF3.1666666666666665
aF3.7222222222222223
aF3.8
aF3.25
aF3.676470588235294
aF3.1785714285714284
aF3.5
aF3.03125
aF3.159090909090909
aF1.8333333333333333
aF2.693877551020408
aF2.5185185185185186
aF3.2
aF3.1818181818181817
aF1.75
aF2.8
aF2.4
aF2.8636363636363638
aF2.8636363636363638
aF2.5652173913043477
aF2.5
aF2.313953488372093
aF2.84375
aF3.090909090909091
aF2.24
aF3.0
aF3.515151515151515
aF2.2857142857142856
aF3.161290322580645
aF2.5
aF2.125
aF2.5625
aF2.8
aF3.0
aF2.0
aF1.875
aF2.25
aF3.111111111111111
aF3.6818181818181817
aF2.8260869565217392
aF4.127659574468085
aF3.3783783783783785
aF3.375
aF3.25
aF3.225806451612903
aF3.53
aF2.289473684210526
aF3.061224489795918
aF2.8333333333333335
aF3.45985401459854
aF3.24
aF3.1875
aF3.967741935483871
aF3.8857142857142857
aF3.8157894736842106
aF3.4375
aF2.5806451612903225
aF3.6
aF2.9318181818181817
aF2.5
aF2.6666666666666665
aF3.0405405405405403
aF2.0
aF2.25
aF2.2857142857142856
aF2.875
aF2.78125
aF2.5185185185185186
aF3.161764705882353
aF2.75
aF2.0
aF2.823529411764706
aF4.011111111111111
aF2.6
aF3.193548387096774
aF3.142857142857143
aF3.0
aF3.225
aF3.24
aF3.1739130434782608
aF2.8358208955223883
aF3.0136986301369864
aF2.52
aF3.6511627906976742
aF3.2439024390243905
aF2.28
aF3.4583333333333335
aF2.3043478260869565
aF3.2
aF3.2
aF2.3181818181818183
aF3.2666666666666666
aF2.7714285714285714
aF3.051282051282051
aF2.9310344827586206
aF3.75
aF3.658536585365854
aF4.25
aF3.490566037735849
aF3.0
aF3.4545454545454546
aF3.1666666666666665
aF3.1666666666666665
aF3.740740740740741
aF2.875
aF2.4285714285714284
aF3.8181818181818183
aF2.961038961038961
aF3.4285714285714284
aF2.25
aF3.125
aF2.772727272727273
aF2.2444444444444445
aF4.0
aF2.75
aF2.625
aF2.5
aF3.857142857142857
aF3.0
aF3.2857142857142856
aF1.7
aF2.230769230769231
aF2.1315789473684212
aF2.4054054054054053
aF2.7209302325581395
aF2.5
aF3.0869565217391304
aF2.4166666666666665
aF2.6206896551724137
aF2.6666666666666665
aF3.5
aF3.6904761904761907
aF3.4615384615384617
aF2.625
aF3.77027027027027
aF2.4285714285714284
aF3.789473684210526
aF3.0
aF2.8333333333333335
aF3.0
aF3.0555555555555554
aF2.4
aF3.4285714285714284
aF2.8536585365853657
aF3.4285714285714284
aF2.8
aF3.272727272727273
aF3.3
aF3.413793103448276
aF3.6153846153846154
aF3.1052631578947367
aF3.25531914893617
aF3.6610169491525424
aF3.0
aF3.761904761904762
aF5.0
aF3.6666666666666665
aF3.8333333333333335
aF4.25
aF3.34375
aF2.909090909090909
aF2.6923076923076925
aF3.5714285714285716
aF4.0
aF4.0
aF2.625
aF2.966666666666667
aF3.3157894736842106
aF2.9782608695652173
aF3.4827586206896552
aF3.9655172413793105
aF3.4
aF2.606060606060606
aF2.2941176470588234
aF3.3333333333333335
aF4.045454545454546
aF4.0
aF3.6666666666666665
aF2.6666666666666665
aF2.0
aF3.6666666666666665
aF3.3333333333333335
aF3.8461538461538463
aF3.111111111111111
aF2.142857142857143
aF3.4285714285714284
aF3.473684210526316
aF3.3333333333333335
aF3.3333333333333335
aF3.0
aF2.88
aF4.0
aF3.5454545454545454
aF3.6153846153846154
aF2.923076923076923
aF1.6
aF2.68
aF2.1666666666666665
aF1.8571428571428572
aF3.1666666666666665
aF3.5454545454545454
aF3.3181818181818183
aF4.1
aF3.074074074074074
aF3.142857142857143
aF3.6666666666666665
aF2.5714285714285716
aF3.25
aF3.4
aF3.3636363636363638
aF1.8571428571428572
aF2.473684210526316
aF2.111111111111111
aF2.5
aF2.5
aF2.3076923076923075
aF2.210526315789474
aF2.5
aF2.2777777777777777
aF3.3333333333333335
aF3.230769230769231
aF2.772727272727273
aF5.0
aF3.3636363636363638
aF4.333333333333333
aF3.3846153846153846
aF3.8
aF4.064516129032258
aF3.272727272727273
aF3.0
aF3.5555555555555554
aF3.142857142857143
aF2.869565217391304
aF3.2857142857142856
aF5.0
aF3.5
aF4.0476190476190474
aF3.611111111111111
aF3.0
aF2.6842105263157894
aF2.2941176470588234
aF2.85
aF2.533333333333333
aF2.736842105263158
aF3.4166666666666665
aF2.8333333333333335
aF2.1666666666666665
aF2.0
aF1.9333333333333333
aF3.0
aF2.871794871794872
aF3.4615384615384617
aF2.9
aF3.3333333333333335
aF3.4871794871794872
aF2.68
aF3.5
aF2.6666666666666665
aF2.642857142857143
aF3.375
aF2.375
aF2.4583333333333335
aF2.1538461538461537
aF1.8333333333333333
aF2.5
aF2.4705882352941178
aF3.5
aF2.375
aF4.0
aF3.0
aF3.5
aF3.125
aF2.4444444444444446
aF3.6538461538461537
aF2.6666666666666665
aF2.6
aF3.7142857142857144
aF2.9166666666666665
aF3.210526315789474
aF1.5714285714285714
aF1.8333333333333333
aF3.0
aF2.8333333333333335
aF1.5
aF4.125
aF3.0
aF2.4285714285714284
aF1.8181818181818181
aF2.25
aF2.0
aF1.75
aF2.5217391304347827
aF2.0
aF2.75
aF3.25
aF3.625
aF2.933333333333333
aF3.2857142857142856
aF3.0526315789473686
aF3.1666666666666665
aF3.0
aF3.3
aF3.9
aF2.2857142857142856
aF2.7142857142857144
aF1.8
aF2.7333333333333334
aF1.7272727272727273
aF2.5
aF2.5
aF3.4210526315789473
aF3.625
aF2.888888888888889
aF2.6875
aF3.1538461538461537
aF3.2222222222222223
aF2.6842105263157894
aF2.8461538461538463
aF3.1333333333333333
aF3.7058823529411766
aF1.3333333333333333
aF3.0
aF2.142857142857143
aF1.5
aF2.2
aF1.6666666666666667
aF5.0
aF3.142857142857143
aF2.5714285714285716
aF3.25
aF2.8333333333333335
aF3.6666666666666665
aF3.0
aF2.3333333333333335
aF3.8
aF3.4
aF2.3333333333333335
aF2.5
aF2.4285714285714284
aF3.0
aF1.5
aF1.0
aF1.0
aF3.0
aF2.5
aF3.0
aF3.142857142857143
aF2.4545454545454546
aF3.130434782608696
aF2.7142857142857144
aF2.0
aF1.3333333333333333
aF1.75
aF1.0
aF2.5
aF2.3333333333333335
aF2.6666666666666665
aF2.4
aF1.0
aF3.3333333333333335
aF2.3333333333333335
aF3.1666666666666665
aF1.0
aF2.5
aF3.0
aF2.0
aF2.8
aF1.0
aF2.6363636363636362
aF1.8
aF2.3333333333333335
aF2.25
aF1.0
aF1.0
aF1.0
aF2.5
aF1.0
aF3.2
aF2.0
aF2.4
aF2.75
aF1.0
aF1.0
aF1.5
aF2.0
aF1.0
aF2.6
aF1.0
aF2.6666666666666665
aF2.6666666666666665
aF2.6666666666666665
aF3.0
aF1.0
aF1.5
aF2.6666666666666665
aF2.0
aF1.0
aF1.0
aF1.5
aF1.0
aF4.2
aF3.6666666666666665
aF2.75
aF2.6666666666666665
aF1.5
aF3.0
aF1.0
aF1.0
aF3.6
aF2.142857142857143
aF3.25
aF2.2
aF2.857142857142857
aF2.3333333333333335
aF3.25
aF2.0
aF2.0
aF1.6666666666666667
aF2.8
aF2.6666666666666665
aF2.0
aF3.3333333333333335
aF3.0
aF2.0
aF2.0
aF2.0
aF2.111111111111111
aF2.4285714285714284
aF2.3333333333333335
aF4.2
aF3.2
aF4.5
aF2.4285714285714284
aF3.1
aF3.2222222222222223
aF2.75
aF2.75
aF3.230769230769231
aF3.3333333333333335
aF3.4
aF2.25
aF1.0
aF2.857142857142857
aF2.75
aF2.5714285714285716
aF1.6666666666666667
aF2.75
aF2.0
aF2.4444444444444446
aF2.4
aF2.5
aF3.6666666666666665
aF2.125
aF1.3333333333333333
aF3.1818181818181817
aF2.25
aF2.25
aF2.3333333333333335
aF2.6
aF3.25
aF2.8
aF3.6666666666666665
aF2.75
aF2.3333333333333335
aF3.4
aF1.0
aF2.0
aF2.5
aF2.5714285714285716
aF2.5
aF2.0
aF2.4
aF3.0
aF3.0
aF2.5714285714285716
aF2.4
aF3.75
aF2.473684210526316
aF2.75
aF3.1333333333333333
aF3.0
aF3.6666666666666665
aF4.625
aF4.0
aF3.8666666666666667
aF4.0
aF2.0
aF3.0
aF2.5
aF3.7142857142857144
aF3.0
aF4.0
aF3.5714285714285716
aF3.0
aF2.0
aF3.7142857142857144
aF3.3333333333333335
aF2.3333333333333335
aF2.3333333333333335
aF4.0
aF5.0
aF3.3333333333333335
aF3.1666666666666665
aF2.6
aF2.4444444444444446
aF3.5
aF3.5555555555555554
aF2.8333333333333335
aF2.875
aF2.0
aF2.5
aF2.7222222222222223
aF2.75
aF2.272727272727273
aF3.0
aF4.0
aF3.4166666666666665
aF2.6666666666666665
aF3.5
aF1.0
aF2.0
aF3.0
aF2.2
aF3.0
aF3.0
aF4.0
aF1.0
aF1.0
aF3.6
aF2.8
aF3.0
aF4.0
aF3.25
aF5.0
aF3.0
aF1.5
aF3.1
aF3.6666666666666665
aF4.0
aF3.6666666666666665
aF3.0
aF2.3333333333333335
aF1.6
aF3.0
aF3.2
aF4.0
aF2.0
aF3.142857142857143
aF4.0
aF4.0
aF2.8
aF3.0
aF3.0
aF3.0
aF3.0
aF2.4285714285714284
aF3.0
aF4.25
aF4.0
aF4.0
aF2.4285714285714284
aF2.3333333333333335
aF2.8
aF2.0
aF3.2857142857142856
aF2.0
aF4.0
aF2.1666666666666665
aF3.0
aF5.0
aF4.0
aF3.0
aF1.75
aF2.8
aF3.5
aF3.0
aF3.0
aF2.6666666666666665
aF2.5
aF1.0
aF3.0
aF1.0
aF1.5
aF3.0
aF2.0
aF2.0
aF2.75
aF3.0
aF2.6
aF2.0
aF1.0
aF3.5714285714285716
aF1.0
aF2.75
aF1.0
aF1.0
aF1.0
aF1.0
aF1.0
aF1.0
aF1.0
aF1.0
aF1.0
aF1.0
aF1.0
aF1.0
aF2.5
aF1.0
aF1.0
aF1.0
aF1.0
aF2.0
aF1.0
aF1.0
aF1.0
aF1.0
aF1.0
aF1.0
aF2.5
aF1.0
aF1.0
aF2.0
aF3.0
aF2.0
aF3.1666666666666665
aF3.6
aF4.0
aF4.5
aF2.0
aF2.0
aF3.0
aF2.5
aF5.0
aF3.75
aF1.0
aF3.3333333333333335
aF3.0
aF4.0
aF3.0
aF2.0
aF3.3333333333333335
aF2.25
aF1.6666666666666667
aF2.0
aF3.0
aF3.75
aF4.0
aF3.0
aF3.0
aF4.0
aF3.0
aF1.0
aF3.0
aF3.2222222222222223
aF1.0
aF2.3333333333333335
aF4.0
aF2.0
aF4.0
aF1.0
aF3.0
aF3.75
aF4.0
aF3.0
aF3.5
aF3.0
aF3.0
aF2.0
aF3.0
aF4.0
aF3.0
aF3.0
aF4.333333333333333
aF3.0
aF3.0
aF4.5
aF3.75
aF1.5
aF4.0
aF3.5
aF3.0
aF2.0
aF3.0
aF4.0
aF4.0
aF1.6666666666666667
aF5.0
aF1.0
aF2.0
aF3.5
aF3.0
aF3.0
aF1.0
aF2.0
aF1.0
aF2.5
aF2.0
aF3.25
aF2.0
aF2.0
aF3.0
aF3.0
aF2.0
aF3.0
aF1.0
aF2.0
aF3.0
aF4.0
aF3.0
aF2.0
aF3.0
aF1.0
aF3.0
aF2.0
aF3.0
aF3.0
a.