(lp0
(lp1
(I0
F5.0
tp2
a(I5
F5.0
tp3
a(I8
F5.0
tp4
a(I11
F5.0
tp5
a(I12
F5.0
tp6
a(I13
F5.0
tp7
a(I14
F5.0
tp8
a(I15
F5.0
tp9
a(I18
F5.0
tp10
a(I31
F5.0
tp11
aa(lp12
(I49
F5.0
tp13
a(I99
F5.0
tp14
a(I126
F5.0
tp15
a(I241
F5.0
tp16
a(I250
F5.0
tp17
a(I271
F5.0
tp18
a(I274
F5.0
tp19
a(I282
F5.0
tp20
a(I284
F5.0
tp21
a(I301
F5.0
tp22
aa(lp23
(I319
F5.0
tp24
a(I320
F5.0
tp25
a(I327
F5.0
tp26
a(I339
F5.0
tp27
a(I345
F5.0
tp28
a(I346
F5.0
tp29
a(I180
F4.0
tp30
a(I259
F4.0
tp31
a(I317
F4.0
tp32
a(I326
F4.0
tp33
aa(lp34
(I49
F5.0
tp35
a(I257
F5.0
tp36
a(I293
F5.0
tp37
a(I299
F5.0
tp38
a(I300
F5.0
tp39
a(I302
F5.0
tp40
a(I323
F5.0
tp41
a(I326
F5.0
tp42
a(I328
F5.0
tp43
a(I353
F5.0
tp44
aa(lp45
(I41
F5.0
tp46
a(I88
F5.0
tp47
a(I99
F5.0
tp48
a(I100
F5.0
tp49
a(I108
F5.0
tp50
a(I152
F5.0
tp51
a(I162
F5.0
tp52
a(I168
F5.0
tp53
a(I171
F5.0
tp54
a(I173
F5.0
tp55
aa(lp56
(I13
F5.0
tp57
a(I58
F5.0
tp58
a(I97
F5.0
tp59
a(I99
F5.0
tp60
a(I123
F5.0
tp61
a(I126
F5.0
tp62
a(I130
F5.0
tp63
a(I131
F5.0
tp64
a(I133
F5.0
tp65
a(I134
F5.0
tp66
aa(lp67
(I3
F5.0
tp68
a(I6
F5.0
tp69
a(I7
F5.0
tp70
a(I8
F5.0
tp71
a(I11
F5.0
tp72
a(I21
F5.0
tp73
a(I27
F5.0
tp74
a(I38
F5.0
tp75
a(I43
F5.0
tp76
a(I46
F5.0
tp77
aa(lp78
(I21
F5.0
tp79
a(I49
F5.0
tp80
a(I54
F5.0
tp81
a(I55
F5.0
tp82
a(I81
F5.0
tp83
a(I126
F5.0
tp84
a(I143
F5.0
tp85
a(I171
F5.0
tp86
a(I173
F5.0
tp87
a(I175
F5.0
tp88
aa(lp89
(I5
F5.0
tp90
a(I49
F5.0
tp91
a(I200
F5.0
tp92
a(I285
F5.0
tp93
a(I297
F5.0
tp94
a(I370
F5.0
tp95
a(I384
F5.0
tp96
a(I482
F5.0
tp97
a(I486
F5.0
tp98
a(I690
F5.0
tp99
aa(lp100
(I11
F5.0
tp101
a(I21
F5.0
tp102
a(I22
F5.0
tp103
a(I49
F5.0
tp104
a(I55
F5.0
tp105
a(I98
F5.0
tp106
a(I99
F5.0
tp107
a(I123
F5.0
tp108
a(I126
F5.0
tp109
a(I131
F5.0
tp110
aa(lp111
(I8
F5.0
tp112
a(I14
F5.0
tp113
a(I27
F5.0
tp114
a(I82
F5.0
tp115
a(I172
F5.0
tp116
a(I195
F5.0
tp117
a(I257
F5.0
tp118
a(I267
F5.0
tp119
a(I276
F5.0
tp120
a(I285
F5.0
tp121
aa(lp122
(I3
F5.0
tp123
a(I14
F5.0
tp124
a(I27
F5.0
tp125
a(I68
F5.0
tp126
a(I87
F5.0
tp127
a(I96
F5.0
tp128
a(I97
F5.0
tp129
a(I131
F5.0
tp130
a(I142
F5.0
tp131
a(I156
F5.0
tp132
aa(lp133
(I3
F5.0
tp134
a(I11
F5.0
tp135
a(I12
F5.0
tp136
a(I22
F5.0
tp137
a(I27
F5.0
tp138
a(I32
F5.0
tp139
a(I47
F5.0
tp140
a(I49
F5.0
tp141
a(I55
F5.0
tp142
a(I61
F5.0
tp143
aa(lp144
(I6
F5.0
tp145
a(I11
F5.0
tp146
a(I18
F5.0
tp147
a(I22
F5.0
tp148
a(I31
F5.0
tp149
a(I49
F5.0
tp150
a(I55
F5.0
tp151
a(I80
F5.0
tp152
a(I99
F5.0
tp153
a(I115
F5.0
tp154
aa(lp155
(I49
F5.0
tp156
a(I124
F5.0
tp157
a(I180
F5.0
tp158
a(I254
F5.0
tp159
a(I268
F5.0
tp160
a(I291
F5.0
tp161
a(I305
F5.0
tp162
a(I307
F5.0
tp163
a(I457
F5.0
tp164
a(I458
F5.0
tp165
aa(lp166
(I0
F5.0
tp167
a(I3
F5.0
tp168
a(I6
F5.0
tp169
a(I7
F5.0
tp170
a(I8
F5.0
tp171
a(I10
F5.0
tp172
a(I11
F5.0
tp173
a(I14
F5.0
tp174
a(I21
F5.0
tp175
a(I27
F5.0
tp176
aa(lp177
(I149
F5.0
tp178
a(I0
F4.0
tp179
a(I6
F4.0
tp180
a(I99
F4.0
tp181
a(I125
F4.0
tp182
a(I136
F4.0
tp183
a(I150
F4.0
tp184
a(I268
F4.0
tp185
a(I275
F4.0
tp186
a(I293
F4.0
tp187
aa(lp188
(I0
F5.0
tp189
a(I5
F5.0
tp190
a(I7
F5.0
tp191
a(I8
F5.0
tp192
a(I11
F5.0
tp193
a(I12
F5.0
tp194
a(I13
F5.0
tp195
a(I21
F5.0
tp196
a(I44
F5.0
tp197
a(I51
F5.0
tp198
aa(lp199
(I7
F5.0
tp200
a(I434
F5.0
tp201
a(I3
F4.0
tp202
a(I152
F4.0
tp203
a(I201
F4.0
tp204
a(I210
F4.0
tp205
a(I257
F4.0
tp206
a(I309
F4.0
tp207
a(I318
F4.0
tp208
a(I324
F4.0
tp209
aa(lp210
(I21
F5.0
tp211
a(I86
F5.0
tp212
a(I147
F5.0
tp213
a(I495
F5.0
tp214
a(I14
F4.0
tp215
a(I81
F4.0
tp216
a(I117
F4.0
tp217
a(I173
F4.0
tp218
a(I180
F4.0
tp219
a(I209
F4.0
tp220
aa(lp221
(I0
F5.0
tp222
a(I6
F5.0
tp223
a(I8
F5.0
tp224
a(I55
F5.0
tp225
a(I97
F5.0
tp226
a(I99
F5.0
tp227
a(I126
F5.0
tp228
a(I163
F5.0
tp229
a(I184
F5.0
tp230
a(I199
F5.0
tp231
aa(lp232
(I3
F5.0
tp233
a(I23
F5.0
tp234
a(I49
F5.0
tp235
a(I84
F5.0
tp236
a(I88
F5.0
tp237
a(I95
F5.0
tp238
a(I126
F5.0
tp239
a(I127
F5.0
tp240
a(I143
F5.0
tp241
a(I152
F5.0
tp242
aa(lp243
(I0
F5.0
tp244
a(I88
F5.0
tp245
a(I97
F5.0
tp246
a(I99
F5.0
tp247
a(I115
F5.0
tp248
a(I123
F5.0
tp249
a(I170
F5.0
tp250
a(I172
F5.0
tp251
a(I174
F5.0
tp252
a(I188
F5.0
tp253
aa(lp254
(I7
F5.0
tp255
a(I8
F5.0
tp256
a(I10
F5.0
tp257
a(I11
F5.0
tp258
a(I40
F5.0
tp259
a(I54
F5.0
tp260
a(I63
F5.0
tp261
a(I68
F5.0
tp262
a(I70
F5.0
tp263
a(I91
F5.0
tp264
aa(lp265
(I0
F5.0
tp266
a(I24
F5.0
tp267
a(I49
F5.0
tp268
a(I97
F5.0
tp269
a(I113
F5.0
tp270
a(I124
F5.0
tp271
a(I168
F5.0
tp272
a(I173
F5.0
tp273
a(I180
F5.0
tp274
a(I188
F5.0
tp275
aa(lp276
(I99
F5.0
tp277
a(I126
F5.0
tp278
a(I301
F5.0
tp279
a(I312
F5.0
tp280
a(I8
F4.0
tp281
a(I14
F4.0
tp282
a(I49
F4.0
tp283
a(I124
F4.0
tp284
a(I125
F4.0
tp285
a(I128
F4.0
tp286
aa(lp287
(I99
F5.0
tp288
a(I122
F5.0
tp289
a(I8
F4.0
tp290
a(I120
F4.0
tp291
a(I245
F4.0
tp292
a(I297
F4.0
tp293
a(I369
F4.0
tp294
a(I514
F4.0
tp295
a(I1016
F4.0
tp296
a(I49
F3.0
tp297
aa(lp298
(I6
F5.0
tp299
a(I55
F5.0
tp300
a(I95
F5.0
tp301
a(I97
F5.0
tp302
a(I99
F5.0
tp303
a(I173
F5.0
tp304
a(I175
F5.0
tp305
a(I184
F5.0
tp306
a(I218
F5.0
tp307
a(I221
F5.0
tp308
aa(lp309
(I11
F5.0
tp310
a(I267
F5.0
tp311
a(I285
F5.0
tp312
a(I660
F5.0
tp313
a(I78
F4.0
tp314
a(I97
F4.0
tp315
a(I179
F4.0
tp316
a(I181
F4.0
tp317
a(I188
F4.0
tp318
a(I258
F4.0
tp319
aa(lp320
(I68
F5.0
tp321
a(I134
F5.0
tp322
a(I173
F5.0
tp323
a(I241
F5.0
tp324
a(I257
F5.0
tp325
a(I285
F5.0
tp326
a(I312
F5.0
tp327
a(I434
F5.0
tp328
a(I530
F5.0
tp329
a(I1006
F5.0
tp330
aa(lp331
(I31
F5.0
tp332
a(I135
F5.0
tp333
a(I174
F5.0
tp334
a(I261
F5.0
tp335
a(I483
F5.0
tp336
a(I492
F5.0
tp337
a(I503
F5.0
tp338
a(I513
F5.0
tp339
a(I704
F5.0
tp340
a(I1018
F5.0
tp341
aa(lp342
(I267
F5.0
tp343
a(I297
F5.0
tp344
a(I474
F5.0
tp345
a(I6
F4.0
tp346
a(I49
F4.0
tp347
a(I180
F4.0
tp348
a(I245
F4.0
tp349
a(I247
F4.0
tp350
a(I248
F4.0
tp351
a(I249
F4.0
tp352
aa(lp353
(I312
F5.0
tp354
a(I257
F4.0
tp355
a(I259
F4.0
tp356
a(I270
F4.0
tp357
a(I287
F4.0
tp358
a(I291
F4.0
tp359
a(I299
F4.0
tp360
a(I322
F4.0
tp361
a(I327
F4.0
tp362
a(I328
F4.0
tp363
aa(lp364
(I241
F5.0
tp365
a(I285
F5.0
tp366
a(I291
F5.0
tp367
a(I298
F5.0
tp368
a(I323
F5.0
tp369
a(I328
F5.0
tp370
a(I331
F5.0
tp371
a(I897
F5.0
tp372
a(I898
F5.0
tp373
a(I989
F5.0
tp374
aa(lp375
(I299
F5.0
tp376
a(I258
F4.0
tp377
a(I331
F4.0
tp378
a(I332
F4.0
tp379
a(I679
F4.0
tp380
a(I747
F4.0
tp381
a(I878
F4.0
tp382
a(I936
F4.0
tp383
a(I260
F3.0
tp384
a(I265
F3.0
tp385
aa(lp386
(I260
F5.0
tp387
a(I338
F5.0
tp388
a(I357
F5.0
tp389
a(I877
F5.0
tp390
a(I881
F5.0
tp391
a(I882
F5.0
tp392
a(I884
F5.0
tp393
a(I1025
F5.0
tp394
a(I287
F4.0
tp395
a(I306
F4.0
tp396
aa(lp397
(I21
F5.0
tp398
a(I49
F5.0
tp399
a(I55
F5.0
tp400
a(I61
F5.0
tp401
a(I67
F5.0
tp402
a(I160
F5.0
tp403
a(I173
F5.0
tp404
a(I194
F5.0
tp405
a(I225
F5.0
tp406
a(I402
F5.0
tp407
aa(lp408
(I0
F5.0
tp409
a(I21
F5.0
tp410
a(I34
F5.0
tp411
a(I68
F5.0
tp412
a(I69
F5.0
tp413
a(I70
F5.0
tp414
a(I77
F5.0
tp415
a(I81
F5.0
tp416
a(I83
F5.0
tp417
a(I87
F5.0
tp418
aa(lp419
(I287
F5.0
tp420
a(I301
F5.0
tp421
a(I351
F5.0
tp422
a(I747
F5.0
tp423
a(I936
F5.0
tp424
a(I257
F4.0
tp425
a(I268
F4.0
tp426
a(I269
F4.0
tp427
a(I293
F4.0
tp428
a(I312
F4.0
tp429
aa(lp430
(I241
F4.0
tp431
a(I267
F4.0
tp432
a(I293
F4.0
tp433
a(I302
F4.0
tp434
a(I304
F4.0
tp435
a(I320
F4.0
tp436
a(I332
F4.0
tp437
a(I336
F4.0
tp438
a(I344
F4.0
tp439
a(I753
F4.0
tp440
aa(lp441
(I49
F5.0
tp442
a(I167
F5.0
tp443
a(I174
F5.0
tp444
a(I179
F5.0
tp445
a(I237
F5.0
tp446
a(I429
F5.0
tp447
a(I473
F5.0
tp448
a(I515
F5.0
tp449
a(I0
F4.0
tp450
a(I27
F4.0
tp451
aa(lp452
(I0
F5.0
tp453
a(I1
F5.0
tp454
a(I27
F5.0
tp455
a(I47
F5.0
tp456
a(I49
F5.0
tp457
a(I57
F5.0
tp458
a(I63
F5.0
tp459
a(I76
F5.0
tp460
a(I78
F5.0
tp461
a(I87
F5.0
tp462
aa(lp463
(I0
F5.0
tp464
a(I10
F5.0
tp465
a(I11
F5.0
tp466
a(I14
F5.0
tp467
a(I24
F5.0
tp468
a(I25
F5.0
tp469
a(I55
F5.0
tp470
a(I63
F5.0
tp471
a(I87
F5.0
tp472
a(I96
F5.0
tp473
aa(lp474
(I6
F5.0
tp475
a(I8
F5.0
tp476
a(I49
F5.0
tp477
a(I63
F5.0
tp478
a(I86
F5.0
tp479
a(I88
F5.0
tp480
a(I99
F5.0
tp481
a(I134
F5.0
tp482
a(I167
F5.0
tp483
a(I172
F5.0
tp484
aa(lp485
(I0
F5.0
tp486
a(I12
F5.0
tp487
a(I49
F5.0
tp488
a(I99
F5.0
tp489
a(I108
F5.0
tp490
a(I126
F5.0
tp491
a(I256
F5.0
tp492
a(I275
F5.0
tp493
a(I14
F4.0
tp494
a(I24
F4.0
tp495
aa(lp496
(I126
F5.0
tp497
a(I261
F5.0
tp498
a(I285
F5.0
tp499
a(I304
F5.0
tp500
a(I312
F5.0
tp501
a(I332
F5.0
tp502
a(I689
F5.0
tp503
a(I747
F5.0
tp504
a(I908
F5.0
tp505
a(I1023
F5.0
tp506
aa(lp507
(I261
F5.0
tp508
a(I301
F5.0
tp509
a(I304
F5.0
tp510
a(I339
F5.0
tp511
a(I257
F4.0
tp512
a(I267
F4.0
tp513
a(I268
F4.0
tp514
a(I288
F4.0
tp515
a(I291
F4.0
tp516
a(I300
F4.0
tp517
aa(lp518
(I97
F5.0
tp519
a(I131
F5.0
tp520
a(I171
F5.0
tp521
a(I173
F5.0
tp522
a(I180
F5.0
tp523
a(I182
F5.0
tp524
a(I186
F5.0
tp525
a(I190
F5.0
tp526
a(I194
F5.0
tp527
a(I208
F5.0
tp528
aa(lp529
(I46
F5.0
tp530
a(I55
F5.0
tp531
a(I90
F5.0
tp532
a(I92
F5.0
tp533
a(I150
F5.0
tp534
a(I153
F5.0
tp535
a(I167
F5.0
tp536
a(I174
F5.0
tp537
a(I178
F5.0
tp538
a(I184
F5.0
tp539
aa(lp540
(I252
F5.0
tp541
a(I318
F5.0
tp542
a(I323
F5.0
tp543
a(I474
F5.0
tp544
a(I507
F5.0
tp545
a(I1007
F5.0
tp546
a(I1009
F5.0
tp547
a(I1083
F5.0
tp548
a(I8
F4.0
tp549
a(I122
F4.0
tp550
aa(lp551
(I49
F5.0
tp552
a(I82
F5.0
tp553
a(I143
F5.0
tp554
a(I171
F5.0
tp555
a(I172
F5.0
tp556
a(I180
F5.0
tp557
a(I63
F4.0
tp558
a(I131
F4.0
tp559
a(I135
F4.0
tp560
a(I202
F4.0
tp561
aa(lp562
(I6
F5.0
tp563
a(I12
F5.0
tp564
a(I14
F5.0
tp565
a(I18
F5.0
tp566
a(I21
F5.0
tp567
a(I24
F5.0
tp568
a(I125
F5.0
tp569
a(I150
F5.0
tp570
a(I190
F5.0
tp571
a(I257
F5.0
tp572
aa(lp573
(I14
F5.0
tp574
a(I63
F5.0
tp575
a(I99
F5.0
tp576
a(I173
F5.0
tp577
a(I198
F5.0
tp578
a(I627
F5.0
tp579
a(I24
F4.0
tp580
a(I49
F4.0
tp581
a(I95
F4.0
tp582
a(I117
F4.0
tp583
aa(lp584
(I49
F5.0
tp585
a(I99
F5.0
tp586
a(I116
F5.0
tp587
a(I146
F5.0
tp588
a(I180
F5.0
tp589
a(I267
F5.0
tp590
a(I271
F5.0
tp591
a(I275
F5.0
tp592
a(I326
F5.0
tp593
a(I332
F5.0
tp594
aa(lp595
(I21
F5.0
tp596
a(I78
F5.0
tp597
a(I88
F5.0
tp598
a(I117
F5.0
tp599
a(I143
F5.0
tp600
a(I272
F5.0
tp601
a(I49
F4.0
tp602
a(I55
F4.0
tp603
a(I173
F4.0
tp604
a(I180
F4.0
tp605
aa(lp606
(I6
F5.0
tp607
a(I21
F5.0
tp608
a(I27
F5.0
tp609
a(I49
F5.0
tp610
a(I55
F5.0
tp611
a(I61
F5.0
tp612
a(I63
F5.0
tp613
a(I95
F5.0
tp614
a(I116
F5.0
tp615
a(I120
F5.0
tp616
aa(lp617
(I0
F5.0
tp618
a(I41
F5.0
tp619
a(I49
F5.0
tp620
a(I63
F5.0
tp621
a(I78
F5.0
tp622
a(I99
F5.0
tp623
a(I172
F5.0
tp624
a(I180
F5.0
tp625
a(I198
F5.0
tp626
a(I221
F5.0
tp627
aa(lp628
(I0
F5.0
tp629
a(I6
F5.0
tp630
a(I10
F5.0
tp631
a(I11
F5.0
tp632
a(I31
F5.0
tp633
a(I44
F5.0
tp634
a(I55
F5.0
tp635
a(I60
F5.0
tp636
a(I63
F5.0
tp637
a(I99
F5.0
tp638
aa(lp639
(I10
F5.0
tp640
a(I11
F5.0
tp641
a(I12
F5.0
tp642
a(I13
F5.0
tp643
a(I14
F5.0
tp644
a(I22
F5.0
tp645
a(I27
F5.0
tp646
a(I29
F5.0
tp647
a(I41
F5.0
tp648
a(I44
F5.0
tp649
aa(lp650
(I6
F5.0
tp651
a(I8
F5.0
tp652
a(I27
F5.0
tp653
a(I29
F5.0
tp654
a(I49
F5.0
tp655
a(I58
F5.0
tp656
a(I59
F5.0
tp657
a(I88
F5.0
tp658
a(I134
F5.0
tp659
a(I150
F5.0
tp660
aa(lp661
(I299
F5.0
tp662
a(I327
F5.0
tp663
a(I346
F5.0
tp664
a(I257
F4.0
tp665
a(I303
F4.0
tp666
a(I309
F4.0
tp667
a(I1126
F4.0
tp668
a(I268
F3.0
tp669
a(I322
F3.0
tp670
a(I332
F3.0
tp671
aa(lp672
(I7
F5.0
tp673
a(I49
F5.0
tp674
a(I54
F5.0
tp675
a(I55
F5.0
tp676
a(I82
F5.0
tp677
a(I88
F5.0
tp678
a(I131
F5.0
tp679
a(I150
F5.0
tp680
a(I163
F5.0
tp681
a(I167
F5.0
tp682
aa(lp683
(I99
F5.0
tp684
a(I115
F5.0
tp685
a(I249
F5.0
tp686
a(I300
F5.0
tp687
a(I812
F5.0
tp688
a(I1006
F5.0
tp689
a(I1136
F5.0
tp690
a(I9
F4.0
tp691
a(I12
F4.0
tp692
a(I13
F4.0
tp693
aa(lp694
(I9
F5.0
tp695
a(I11
F5.0
tp696
a(I47
F5.0
tp697
a(I49
F5.0
tp698
a(I55
F5.0
tp699
a(I69
F5.0
tp700
a(I126
F5.0
tp701
a(I167
F5.0
tp702
a(I172
F5.0
tp703
a(I173
F5.0
tp704
aa(lp705
(I8
F5.0
tp706
a(I14
F5.0
tp707
a(I47
F5.0
tp708
a(I49
F5.0
tp709
a(I63
F5.0
tp710
a(I76
F5.0
tp711
a(I86
F5.0
tp712
a(I96
F5.0
tp713
a(I177
F5.0
tp714
a(I195
F5.0
tp715
aa(lp716
(I49
F5.0
tp717
a(I180
F5.0
tp718
a(I299
F5.0
tp719
a(I470
F5.0
tp720
a(I741
F5.0
tp721
a(I8
F4.0
tp722
a(I126
F4.0
tp723
a(I236
F4.0
tp724
a(I247
F4.0
tp725
a(I248
F4.0
tp726
aa(lp727
(I6
F5.0
tp728
a(I63
F5.0
tp729
a(I116
F5.0
tp730
a(I239
F5.0
tp731
a(I404
F5.0
tp732
a(I1092
F5.0
tp733
a(I23
F4.0
tp734
a(I24
F4.0
tp735
a(I104
F4.0
tp736
a(I120
F4.0
tp737
aa(lp738
(I49
F5.0
tp739
a(I177
F5.0
tp740
a(I180
F5.0
tp741
a(I236
F5.0
tp742
a(I257
F5.0
tp743
a(I274
F5.0
tp744
a(I275
F5.0
tp745
a(I285
F5.0
tp746
a(I474
F5.0
tp747
a(I8
F4.0
tp748
aa(lp749
(I6
F5.0
tp750
a(I11
F5.0
tp751
a(I41
F5.0
tp752
a(I47
F5.0
tp753
a(I49
F5.0
tp754
a(I55
F5.0
tp755
a(I97
F5.0
tp756
a(I99
F5.0
tp757
a(I149
F5.0
tp758
a(I150
F5.0
tp759
aa(lp760
(I142
F5.0
tp761
a(I171
F5.0
tp762
a(I173
F5.0
tp763
a(I227
F5.0
tp764
a(I297
F5.0
tp765
a(I418
F5.0
tp766
a(I422
F5.0
tp767
a(I482
F5.0
tp768
a(I510
F5.0
tp769
a(I587
F5.0
tp770
aa(lp771
(I13
F5.0
tp772
a(I55
F5.0
tp773
a(I64
F5.0
tp774
a(I88
F5.0
tp775
a(I167
F5.0
tp776
a(I196
F5.0
tp777
a(I256
F5.0
tp778
a(I356
F5.0
tp779
a(I461
F5.0
tp780
a(I474
F5.0
tp781
aa(lp782
(I8
F5.0
tp783
a(I11
F5.0
tp784
a(I14
F5.0
tp785
a(I24
F5.0
tp786
a(I44
F5.0
tp787
a(I55
F5.0
tp788
a(I63
F5.0
tp789
a(I95
F5.0
tp790
a(I97
F5.0
tp791
a(I99
F5.0
tp792
aa(lp793
(I11
F5.0
tp794
a(I58
F5.0
tp795
a(I63
F5.0
tp796
a(I80
F5.0
tp797
a(I88
F5.0
tp798
a(I126
F5.0
tp799
a(I134
F5.0
tp800
a(I153
F5.0
tp801
a(I170
F5.0
tp802
a(I172
F5.0
tp803
aa(lp804
(I271
F5.0
tp805
a(I312
F5.0
tp806
a(I314
F5.0
tp807
a(I339
F5.0
tp808
a(I6
F4.0
tp809
a(I8
F4.0
tp810
a(I12
F4.0
tp811
a(I14
F4.0
tp812
a(I99
F4.0
tp813
a(I120
F4.0
tp814
aa(lp815
(I12
F5.0
tp816
a(I24
F5.0
tp817
a(I55
F5.0
tp818
a(I78
F5.0
tp819
a(I99
F5.0
tp820
a(I150
F5.0
tp821
a(I189
F5.0
tp822
a(I221
F5.0
tp823
a(I270
F5.0
tp824
a(I272
F5.0
tp825
aa(lp826
(I5
F5.0
tp827
a(I22
F5.0
tp828
a(I55
F5.0
tp829
a(I63
F5.0
tp830
a(I95
F5.0
tp831
a(I97
F5.0
tp832
a(I99
F5.0
tp833
a(I134
F5.0
tp834
a(I136
F5.0
tp835
a(I149
F5.0
tp836
aa(lp837
(I0
F5.0
tp838
a(I27
F5.0
tp839
a(I41
F5.0
tp840
a(I51
F5.0
tp841
a(I88
F5.0
tp842
a(I152
F5.0
tp843
a(I153
F5.0
tp844
a(I172
F5.0
tp845
a(I173
F5.0
tp846
a(I178
F5.0
tp847
aa(lp848
(I236
F5.0
tp849
a(I300
F5.0
tp850
a(I879
F5.0
tp851
a(I1159
F5.0
tp852
a(I92
F4.0
tp853
a(I254
F4.0
tp854
a(I256
F4.0
tp855
a(I287
F4.0
tp856
a(I288
F4.0
tp857
a(I410
F4.0
tp858
aa(lp859
(I6
F5.0
tp860
a(I9
F5.0
tp861
a(I18
F5.0
tp862
a(I99
F5.0
tp863
a(I115
F5.0
tp864
a(I123
F5.0
tp865
a(I235
F5.0
tp866
a(I245
F5.0
tp867
a(I250
F5.0
tp868
a(I257
F5.0
tp869
aa(lp870
(I63
F5.0
tp871
a(I85
F5.0
tp872
a(I99
F5.0
tp873
a(I204
F5.0
tp874
a(I207
F5.0
tp875
a(I214
F5.0
tp876
a(I465
F5.0
tp877
a(I482
F5.0
tp878
a(I44
F4.0
tp879
a(I57
F4.0
tp880
aa(lp881
(I24
F5.0
tp882
a(I78
F5.0
tp883
a(I97
F5.0
tp884
a(I185
F5.0
tp885
a(I281
F5.0
tp886
a(I317
F5.0
tp887
a(I474
F5.0
tp888
a(I590
F5.0
tp889
a(I0
F4.0
tp890
a(I2
F4.0
tp891
aa(lp892
(I49
F5.0
tp893
a(I63
F5.0
tp894
a(I99
F5.0
tp895
a(I167
F5.0
tp896
a(I173
F5.0
tp897
a(I429
F5.0
tp898
a(I434
F5.0
tp899
a(I480
F5.0
tp900
a(I482
F5.0
tp901
a(I522
F5.0
tp902
aa(lp903
(I21
F5.0
tp904
a(I30
F5.0
tp905
a(I37
F5.0
tp906
a(I63
F5.0
tp907
a(I78
F5.0
tp908
a(I81
F5.0
tp909
a(I87
F5.0
tp910
a(I116
F5.0
tp911
a(I124
F5.0
tp912
a(I173
F5.0
tp913
aa(lp914
(I11
F5.0
tp915
a(I63
F5.0
tp916
a(I69
F5.0
tp917
a(I86
F5.0
tp918
a(I193
F5.0
tp919
a(I264
F5.0
tp920
a(I285
F5.0
tp921
a(I288
F5.0
tp922
a(I317
F5.0
tp923
a(I407
F5.0
tp924
aa(lp925
(I49
F5.0
tp926
a(I56
F5.0
tp927
a(I63
F5.0
tp928
a(I98
F5.0
tp929
a(I123
F5.0
tp930
a(I126
F5.0
tp931
a(I131
F5.0
tp932
a(I133
F5.0
tp933
a(I134
F5.0
tp934
a(I151
F5.0
tp935
aa(lp936
(I257
F5.0
tp937
a(I269
F5.0
tp938
a(I682
F5.0
tp939
a(I888
F5.0
tp940
a(I1174
F5.0
tp941
a(I1175
F5.0
tp942
a(I241
F4.0
tp943
a(I258
F4.0
tp944
a(I268
F4.0
tp945
a(I326
F4.0
tp946
aa(lp947
(I3
F5.0
tp948
a(I7
F5.0
tp949
a(I37
F5.0
tp950
a(I48
F5.0
tp951
a(I49
F5.0
tp952
a(I61
F5.0
tp953
a(I63
F5.0
tp954
a(I65
F5.0
tp955
a(I69
F5.0
tp956
a(I78
F5.0
tp957
aa(lp958
(I260
F5.0
tp959
a(I285
F5.0
tp960
a(I310
F5.0
tp961
a(I325
F5.0
tp962
a(I353
F5.0
tp963
a(I880
F5.0
tp964
a(I885
F5.0
tp965
a(I903
F5.0
tp966
a(I1190
F5.0
tp967
a(I300
F4.0
tp968
aa(lp969
(I0
F5.0
tp970
a(I6
F5.0
tp971
a(I14
F5.0
tp972
a(I24
F5.0
tp973
a(I49
F5.0
tp974
a(I85
F5.0
tp975
a(I99
F5.0
tp976
a(I106
F5.0
tp977
a(I116
F5.0
tp978
a(I120
F5.0
tp979
aa(lp980
(I7
F5.0
tp981
a(I9
F5.0
tp982
a(I11
F5.0
tp983
a(I13
F5.0
tp984
a(I22
F5.0
tp985
a(I24
F5.0
tp986
a(I29
F5.0
tp987
a(I51
F5.0
tp988
a(I55
F5.0
tp989
a(I56
F5.0
tp990
aa(lp991
(I21
F5.0
tp992
a(I30
F5.0
tp993
a(I49
F5.0
tp994
a(I68
F5.0
tp995
a(I78
F5.0
tp996
a(I81
F5.0
tp997
a(I96
F5.0
tp998
a(I97
F5.0
tp999
a(I126
F5.0
tp1000
a(I173
F5.0
tp1001
aa(lp1002
(I7
F5.0
tp1003
a(I11
F5.0
tp1004
a(I49
F5.0
tp1005
a(I55
F5.0
tp1006
a(I68
F5.0
tp1007
a(I70
F5.0
tp1008
a(I88
F5.0
tp1009
a(I97
F5.0
tp1010
a(I99
F5.0
tp1011
a(I120
F5.0
tp1012
aa(lp1013
(I0
F5.0
tp1014
a(I14
F5.0
tp1015
a(I476
F5.0
tp1016
a(I13
F4.0
tp1017
a(I221
F4.0
tp1018
a(I234
F4.0
tp1019
a(I274
F4.0
tp1020
a(I282
F4.0
tp1021
a(I475
F4.0
tp1022
a(I814
F4.0
tp1023
aa(lp1024
(I7
F5.0
tp1025
a(I8
F5.0
tp1026
a(I10
F5.0
tp1027
a(I22
F5.0
tp1028
a(I31
F5.0
tp1029
a(I44
F5.0
tp1030
a(I46
F5.0
tp1031
a(I49
F5.0
tp1032
a(I51
F5.0
tp1033
a(I55
F5.0
tp1034
aa(lp1035
(I0
F5.0
tp1036
a(I6
F5.0
tp1037
a(I7
F5.0
tp1038
a(I13
F5.0
tp1039
a(I49
F5.0
tp1040
a(I63
F5.0
tp1041
a(I68
F5.0
tp1042
a(I70
F5.0
tp1043
a(I82
F5.0
tp1044
a(I90
F5.0
tp1045
aa(lp1046
(I0
F5.0
tp1047
a(I6
F5.0
tp1048
a(I7
F5.0
tp1049
a(I22
F5.0
tp1050
a(I49
F5.0
tp1051
a(I55
F5.0
tp1052
a(I63
F5.0
tp1053
a(I88
F5.0
tp1054
a(I90
F5.0
tp1055
a(I97
F5.0
tp1056
aa(lp1057
(I6
F5.0
tp1058
a(I22
F5.0
tp1059
a(I27
F5.0
tp1060
a(I31
F5.0
tp1061
a(I49
F5.0
tp1062
a(I68
F5.0
tp1063
a(I78
F5.0
tp1064
a(I88
F5.0
tp1065
a(I95
F5.0
tp1066
a(I96
F5.0
tp1067
aa(lp1068
(I24
F5.0
tp1069
a(I115
F5.0
tp1070
a(I193
F5.0
tp1071
a(I427
F5.0
tp1072
a(I434
F5.0
tp1073
a(I513
F5.0
tp1074
a(I516
F5.0
tp1075
a(I522
F5.0
tp1076
a(I628
F5.0
tp1077
a(I658
F5.0
tp1078
aa(lp1079
(I3
F5.0
tp1080
a(I10
F5.0
tp1081
a(I11
F5.0
tp1082
a(I21
F5.0
tp1083
a(I49
F5.0
tp1084
a(I55
F5.0
tp1085
a(I63
F5.0
tp1086
a(I97
F5.0
tp1087
a(I99
F5.0
tp1088
a(I116
F5.0
tp1089
aa(lp1090
(I312
F5.0
tp1091
a(I314
F5.0
tp1092
a(I315
F5.0
tp1093
a(I257
F4.0
tp1094
a(I268
F4.0
tp1095
a(I271
F4.0
tp1096
a(I293
F4.0
tp1097
a(I299
F4.0
tp1098
a(I301
F4.0
tp1099
a(I327
F4.0
tp1100
aa(lp1101
(I236
F5.0
tp1102
a(I23
F4.0
tp1103
a(I49
F4.0
tp1104
a(I116
F4.0
tp1105
a(I120
F4.0
tp1106
a(I124
F4.0
tp1107
a(I146
F4.0
tp1108
a(I180
F4.0
tp1109
a(I254
F4.0
tp1110
a(I256
F4.0
tp1111
aa(lp1112
(I49
F4.0
tp1113
a(I88
F4.0
tp1114
a(I94
F4.0
tp1115
a(I97
F4.0
tp1116
a(I100
F4.0
tp1117
a(I173
F4.0
tp1118
a(I174
F4.0
tp1119
a(I182
F4.0
tp1120
a(I185
F4.0
tp1121
a(I194
F4.0
tp1122
aa(lp1123
(I49
F5.0
tp1124
a(I55
F5.0
tp1125
a(I125
F5.0
tp1126
a(I254
F5.0
tp1127
a(I526
F5.0
tp1128
a(I23
F4.0
tp1129
a(I95
F4.0
tp1130
a(I116
F4.0
tp1131
a(I126
F4.0
tp1132
a(I143
F4.0
tp1133
aa(lp1134
(I14
F5.0
tp1135
a(I49
F5.0
tp1136
a(I149
F5.0
tp1137
a(I180
F5.0
tp1138
a(I268
F5.0
tp1139
a(I301
F5.0
tp1140
a(I749
F5.0
tp1141
a(I99
F4.0
tp1142
a(I125
F4.0
tp1143
a(I256
F4.0
tp1144
aa(lp1145
(I257
F5.0
tp1146
a(I269
F5.0
tp1147
a(I301
F5.0
tp1148
a(I312
F5.0
tp1149
a(I267
F4.0
tp1150
a(I268
F4.0
tp1151
a(I271
F4.0
tp1152
a(I285
F4.0
tp1153
a(I287
F4.0
tp1154
a(I323
F4.0
tp1155
aa(lp1156
(I96
F5.0
tp1157
a(I161
F5.0
tp1158
a(I164
F5.0
tp1159
a(I190
F5.0
tp1160
a(I193
F5.0
tp1161
a(I195
F5.0
tp1162
a(I215
F5.0
tp1163
a(I317
F5.0
tp1164
a(I0
F4.0
tp1165
a(I7
F4.0
tp1166
aa(lp1167
(I268
F5.0
tp1168
a(I339
F5.0
tp1169
a(I901
F5.0
tp1170
a(I257
F4.0
tp1171
a(I267
F4.0
tp1172
a(I301
F4.0
tp1173
a(I304
F4.0
tp1174
a(I311
F4.0
tp1175
a(I263
F3.0
tp1176
a(I287
F3.0
tp1177
aa(lp1178
(I6
F5.0
tp1179
a(I9
F5.0
tp1180
a(I13
F5.0
tp1181
a(I136
F5.0
tp1182
a(I274
F5.0
tp1183
a(I318
F5.0
tp1184
a(I514
F5.0
tp1185
a(I0
F4.0
tp1186
a(I49
F4.0
tp1187
a(I99
F4.0
tp1188
aa(lp1189
(I49
F5.0
tp1190
a(I55
F5.0
tp1191
a(I66
F5.0
tp1192
a(I71
F5.0
tp1193
a(I78
F5.0
tp1194
a(I81
F5.0
tp1195
a(I95
F5.0
tp1196
a(I116
F5.0
tp1197
a(I120
F5.0
tp1198
a(I124
F5.0
tp1199
aa(lp1200
(I160
F5.0
tp1201
a(I312
F5.0
tp1202
a(I10
F4.0
tp1203
a(I11
F4.0
tp1204
a(I21
F4.0
tp1205
a(I27
F4.0
tp1206
a(I32
F4.0
tp1207
a(I40
F4.0
tp1208
a(I53
F4.0
tp1209
a(I63
F4.0
tp1210
aa(lp1211
(I268
F5.0
tp1212
a(I301
F5.0
tp1213
a(I314
F5.0
tp1214
a(I241
F4.0
tp1215
a(I257
F4.0
tp1216
a(I285
F4.0
tp1217
a(I300
F4.0
tp1218
a(I303
F4.0
tp1219
a(I310
F4.0
tp1220
a(I312
F4.0
tp1221
aa(lp1222
(I271
F5.0
tp1223
a(I288
F5.0
tp1224
a(I305
F5.0
tp1225
a(I311
F5.0
tp1226
a(I312
F5.0
tp1227
a(I314
F5.0
tp1228
a(I315
F5.0
tp1229
a(I345
F5.0
tp1230
a(I886
F5.0
tp1231
a(I244
F4.0
tp1232
aa(lp1233
(I49
F5.0
tp1234
a(I125
F5.0
tp1235
a(I245
F5.0
tp1236
a(I254
F5.0
tp1237
a(I256
F5.0
tp1238
a(I257
F5.0
tp1239
a(I298
F5.0
tp1240
a(I302
F5.0
tp1241
a(I325
F5.0
tp1242
a(I326
F5.0
tp1243
aa(lp1244
(I88
F5.0
tp1245
a(I99
F5.0
tp1246
a(I171
F5.0
tp1247
a(I174
F5.0
tp1248
a(I175
F5.0
tp1249
a(I178
F5.0
tp1250
a(I182
F5.0
tp1251
a(I473
F5.0
tp1252
a(I521
F5.0
tp1253
a(I1103
F5.0
tp1254
aa(lp1255
(I6
F5.0
tp1256
a(I7
F5.0
tp1257
a(I8
F5.0
tp1258
a(I11
F5.0
tp1259
a(I12
F5.0
tp1260
a(I22
F5.0
tp1261
a(I31
F5.0
tp1262
a(I47
F5.0
tp1263
a(I49
F5.0
tp1264
a(I55
F5.0
tp1265
aa(lp1266
(I10
F5.0
tp1267
a(I55
F5.0
tp1268
a(I126
F5.0
tp1269
a(I179
F5.0
tp1270
a(I186
F5.0
tp1271
a(I202
F5.0
tp1272
a(I245
F5.0
tp1273
a(I267
F5.0
tp1274
a(I312
F5.0
tp1275
a(I343
F5.0
tp1276
aa(lp1277
(I10
F5.0
tp1278
a(I11
F5.0
tp1279
a(I14
F5.0
tp1280
a(I49
F5.0
tp1281
a(I55
F5.0
tp1282
a(I95
F5.0
tp1283
a(I116
F5.0
tp1284
a(I163
F5.0
tp1285
a(I167
F5.0
tp1286
a(I171
F5.0
tp1287
aa(lp1288
(I6
F5.0
tp1289
a(I21
F5.0
tp1290
a(I22
F5.0
tp1291
a(I31
F5.0
tp1292
a(I52
F5.0
tp1293
a(I54
F5.0
tp1294
a(I55
F5.0
tp1295
a(I78
F5.0
tp1296
a(I97
F5.0
tp1297
a(I99
F5.0
tp1298
aa(lp1299
(I6
F5.0
tp1300
a(I10
F5.0
tp1301
a(I24
F5.0
tp1302
a(I27
F5.0
tp1303
a(I30
F5.0
tp1304
a(I49
F5.0
tp1305
a(I86
F5.0
tp1306
a(I95
F5.0
tp1307
a(I99
F5.0
tp1308
a(I108
F5.0
tp1309
aa(lp1310
(I24
F5.0
tp1311
a(I257
F5.0
tp1312
a(I285
F5.0
tp1313
a(I514
F5.0
tp1314
a(I0
F4.0
tp1315
a(I8
F4.0
tp1316
a(I14
F4.0
tp1317
a(I49
F4.0
tp1318
a(I120
F4.0
tp1319
a(I124
F4.0
tp1320
aa(lp1321
(I8
F5.0
tp1322
a(I11
F5.0
tp1323
a(I13
F5.0
tp1324
a(I24
F5.0
tp1325
a(I49
F5.0
tp1326
a(I56
F5.0
tp1327
a(I85
F5.0
tp1328
a(I97
F5.0
tp1329
a(I123
F5.0
tp1330
a(I126
F5.0
tp1331
aa(lp1332
(I45
F5.0
tp1333
a(I69
F5.0
tp1334
a(I82
F5.0
tp1335
a(I85
F5.0
tp1336
a(I126
F5.0
tp1337
a(I174
F5.0
tp1338
a(I179
F5.0
tp1339
a(I190
F5.0
tp1340
a(I196
F5.0
tp1341
a(I211
F5.0
tp1342
aa(lp1343
(I8
F5.0
tp1344
a(I13
F5.0
tp1345
a(I126
F5.0
tp1346
a(I134
F5.0
tp1347
a(I142
F5.0
tp1348
a(I164
F5.0
tp1349
a(I191
F5.0
tp1350
a(I196
F5.0
tp1351
a(I241
F5.0
tp1352
a(I284
F5.0
tp1353
aa(lp1354
(I10
F5.0
tp1355
a(I153
F5.0
tp1356
a(I165
F5.0
tp1357
a(I167
F5.0
tp1358
a(I6
F4.0
tp1359
a(I95
F4.0
tp1360
a(I97
F4.0
tp1361
a(I143
F4.0
tp1362
a(I194
F4.0
tp1363
a(I225
F4.0
tp1364
aa(lp1365
(I21
F5.0
tp1366
a(I49
F5.0
tp1367
a(I63
F5.0
tp1368
a(I65
F5.0
tp1369
a(I66
F5.0
tp1370
a(I72
F5.0
tp1371
a(I78
F5.0
tp1372
a(I81
F5.0
tp1373
a(I86
F5.0
tp1374
a(I87
F5.0
tp1375
aa(lp1376
(I242
F5.0
tp1377
a(I265
F5.0
tp1378
a(I312
F5.0
tp1379
a(I327
F5.0
tp1380
a(I336
F5.0
tp1381
a(I339
F5.0
tp1382
a(I352
F5.0
tp1383
a(I680
F5.0
tp1384
a(I877
F5.0
tp1385
a(I880
F5.0
tp1386
aa(lp1387
(I61
F5.0
tp1388
a(I221
F5.0
tp1389
a(I227
F5.0
tp1390
a(I228
F5.0
tp1391
a(I229
F5.0
tp1392
a(I242
F5.0
tp1393
a(I257
F5.0
tp1394
a(I270
F5.0
tp1395
a(I287
F5.0
tp1396
a(I299
F5.0
tp1397
aa(lp1398
(I13
F5.0
tp1399
a(I27
F5.0
tp1400
a(I63
F5.0
tp1401
a(I81
F5.0
tp1402
a(I82
F5.0
tp1403
a(I85
F5.0
tp1404
a(I116
F5.0
tp1405
a(I117
F5.0
tp1406
a(I130
F5.0
tp1407
a(I132
F5.0
tp1408
aa(lp1409
(I285
F5.0
tp1410
a(I905
F5.0
tp1411
a(I241
F4.0
tp1412
a(I268
F4.0
tp1413
a(I271
F4.0
tp1414
a(I301
F4.0
tp1415
a(I1175
F4.0
tp1416
a(I269
F3.0
tp1417
a(I299
F3.0
tp1418
a(I302
F3.0
tp1419
aa(lp1420
(I0
F5.0
tp1421
a(I2
F5.0
tp1422
a(I6
F5.0
tp1423
a(I10
F5.0
tp1424
a(I16
F5.0
tp1425
a(I21
F5.0
tp1426
a(I23
F5.0
tp1427
a(I32
F5.0
tp1428
a(I49
F5.0
tp1429
a(I53
F5.0
tp1430
aa(lp1431
(I8
F5.0
tp1432
a(I13
F5.0
tp1433
a(I99
F5.0
tp1434
a(I123
F5.0
tp1435
a(I241
F5.0
tp1436
a(I250
F5.0
tp1437
a(I268
F5.0
tp1438
a(I275
F5.0
tp1439
a(I284
F5.0
tp1440
a(I285
F5.0
tp1441
aa(lp1442
(I55
F5.0
tp1443
a(I663
F5.0
tp1444
a(I921
F5.0
tp1445
a(I11
F4.0
tp1446
a(I99
F4.0
tp1447
a(I123
F4.0
tp1448
a(I126
F4.0
tp1449
a(I136
F4.0
tp1450
a(I153
F4.0
tp1451
a(I250
F4.0
tp1452
aa(lp1453
(I257
F5.0
tp1454
a(I270
F5.0
tp1455
a(I271
F5.0
tp1456
a(I268
F4.0
tp1457
a(I305
F4.0
tp1458
a(I307
F4.0
tp1459
a(I314
F4.0
tp1460
a(I315
F4.0
tp1461
a(I748
F4.0
tp1462
a(I749
F4.0
tp1463
aa(lp1464
(I0
F5.0
tp1465
a(I14
F5.0
tp1466
a(I312
F5.0
tp1467
a(I325
F5.0
tp1468
a(I747
F5.0
tp1469
a(I750
F5.0
tp1470
a(I257
F4.0
tp1471
a(I293
F4.0
tp1472
a(I315
F4.0
tp1473
a(I322
F4.0
tp1474
aa(lp1475
(I97
F5.0
tp1476
a(I11
F4.0
tp1477
a(I22
F4.0
tp1478
a(I54
F4.0
tp1479
a(I55
F4.0
tp1480
a(I76
F4.0
tp1481
a(I172
F4.0
tp1482
a(I175
F4.0
tp1483
a(I182
F4.0
tp1484
a(I184
F4.0
tp1485
aa(lp1486
(I8
F5.0
tp1487
a(I13
F5.0
tp1488
a(I99
F5.0
tp1489
a(I115
F5.0
tp1490
a(I123
F5.0
tp1491
a(I126
F5.0
tp1492
a(I136
F5.0
tp1493
a(I257
F5.0
tp1494
a(I268
F5.0
tp1495
a(I275
F5.0
tp1496
aa(lp1497
(I49
F5.0
tp1498
a(I54
F5.0
tp1499
a(I78
F5.0
tp1500
a(I88
F5.0
tp1501
a(I95
F5.0
tp1502
a(I116
F5.0
tp1503
a(I117
F5.0
tp1504
a(I120
F5.0
tp1505
a(I143
F5.0
tp1506
a(I171
F5.0
tp1507
aa(lp1508
(I11
F5.0
tp1509
a(I25
F5.0
tp1510
a(I44
F5.0
tp1511
a(I55
F5.0
tp1512
a(I97
F5.0
tp1513
a(I99
F5.0
tp1514
a(I136
F5.0
tp1515
a(I186
F5.0
tp1516
a(I193
F5.0
tp1517
a(I237
F5.0
tp1518
aa(lp1519
(I99
F5.0
tp1520
a(I126
F5.0
tp1521
a(I296
F5.0
tp1522
a(I302
F5.0
tp1523
a(I474
F5.0
tp1524
a(I743
F5.0
tp1525
a(I1232
F5.0
tp1526
a(I149
F4.0
tp1527
a(I245
F4.0
tp1528
a(I267
F4.0
tp1529
aa(lp1530
(I285
F5.0
tp1531
a(I302
F5.0
tp1532
a(I267
F4.0
tp1533
a(I288
F4.0
tp1534
a(I301
F4.0
tp1535
a(I303
F4.0
tp1536
a(I318
F4.0
tp1537
a(I320
F4.0
tp1538
a(I879
F4.0
tp1539
a(I244
F3.0
tp1540
aa(lp1541
(I6
F5.0
tp1542
a(I14
F5.0
tp1543
a(I24
F5.0
tp1544
a(I105
F5.0
tp1545
a(I117
F5.0
tp1546
a(I124
F5.0
tp1547
a(I125
F5.0
tp1548
a(I243
F5.0
tp1549
a(I257
F5.0
tp1550
a(I273
F5.0
tp1551
aa(lp1552
(I90
F5.0
tp1553
a(I133
F5.0
tp1554
a(I168
F5.0
tp1555
a(I175
F5.0
tp1556
a(I180
F5.0
tp1557
a(I267
F5.0
tp1558
a(I332
F5.0
tp1559
a(I345
F5.0
tp1560
a(I513
F5.0
tp1561
a(I6
F4.0
tp1562
aa(lp1563
(I287
F5.0
tp1564
a(I312
F5.0
tp1565
a(I324
F5.0
tp1566
a(I325
F5.0
tp1567
a(I330
F5.0
tp1568
a(I332
F5.0
tp1569
a(I346
F5.0
tp1570
a(I270
F4.0
tp1571
a(I271
F4.0
tp1572
a(I306
F4.0
tp1573
aa(lp1574
(I8
F5.0
tp1575
a(I21
F5.0
tp1576
a(I32
F5.0
tp1577
a(I47
F5.0
tp1578
a(I49
F5.0
tp1579
a(I63
F5.0
tp1580
a(I68
F5.0
tp1581
a(I86
F5.0
tp1582
a(I95
F5.0
tp1583
a(I99
F5.0
tp1584
aa(lp1585
(I6
F5.0
tp1586
a(I10
F5.0
tp1587
a(I11
F5.0
tp1588
a(I12
F5.0
tp1589
a(I21
F5.0
tp1590
a(I30
F5.0
tp1591
a(I41
F5.0
tp1592
a(I43
F5.0
tp1593
a(I49
F5.0
tp1594
a(I53
F5.0
tp1595
aa(lp1596
(I244
F5.0
tp1597
a(I271
F5.0
tp1598
a(I314
F5.0
tp1599
a(I330
F5.0
tp1600
a(I335
F5.0
tp1601
a(I1021
F5.0
tp1602
a(I1292
F5.0
tp1603
a(I257
F4.0
tp1604
a(I261
F4.0
tp1605
a(I268
F4.0
tp1606
aa(lp1607
(I285
F5.0
tp1608
a(I291
F5.0
tp1609
a(I300
F5.0
tp1610
a(I303
F5.0
tp1611
a(I338
F5.0
tp1612
a(I749
F5.0
tp1613
a(I897
F5.0
tp1614
a(I903
F5.0
tp1615
a(I257
F4.0
tp1616
a(I268
F4.0
tp1617
aa(lp1618
(I6
F5.0
tp1619
a(I49
F5.0
tp1620
a(I55
F5.0
tp1621
a(I68
F5.0
tp1622
a(I69
F5.0
tp1623
a(I70
F5.0
tp1624
a(I88
F5.0
tp1625
a(I113
F5.0
tp1626
a(I115
F5.0
tp1627
a(I132
F5.0
tp1628
aa(lp1629
(I268
F5.0
tp1630
a(I285
F5.0
tp1631
a(I312
F5.0
tp1632
a(I267
F4.0
tp1633
a(I301
F4.0
tp1634
a(I302
F4.0
tp1635
a(I304
F4.0
tp1636
a(I339
F4.0
tp1637
a(I344
F4.0
tp1638
a(I345
F4.0
tp1639
aa(lp1640
(I49
F5.0
tp1641
a(I126
F5.0
tp1642
a(I180
F5.0
tp1643
a(I245
F5.0
tp1644
a(I267
F5.0
tp1645
a(I275
F5.0
tp1646
a(I474
F5.0
tp1647
a(I0
F4.0
tp1648
a(I12
F4.0
tp1649
a(I13
F4.0
tp1650
aa(lp1651
(I0
F5.0
tp1652
a(I3
F5.0
tp1653
a(I9
F5.0
tp1654
a(I11
F5.0
tp1655
a(I13
F5.0
tp1656
a(I32
F5.0
tp1657
a(I49
F5.0
tp1658
a(I51
F5.0
tp1659
a(I63
F5.0
tp1660
a(I80
F5.0
tp1661
aa(lp1662
(I7
F5.0
tp1663
a(I14
F5.0
tp1664
a(I21
F5.0
tp1665
a(I32
F5.0
tp1666
a(I48
F5.0
tp1667
a(I65
F5.0
tp1668
a(I66
F5.0
tp1669
a(I68
F5.0
tp1670
a(I70
F5.0
tp1671
a(I79
F5.0
tp1672
aa(lp1673
(I55
F5.0
tp1674
a(I63
F5.0
tp1675
a(I78
F5.0
tp1676
a(I181
F5.0
tp1677
a(I257
F5.0
tp1678
a(I356
F5.0
tp1679
a(I264
F4.0
tp1680
a(I567
F4.0
tp1681
a(I126
F3.0
tp1682
a(I320
F3.0
tp1683
aa(lp1684
(I49
F5.0
tp1685
a(I88
F5.0
tp1686
a(I134
F5.0
tp1687
a(I173
F5.0
tp1688
a(I174
F5.0
tp1689
a(I181
F5.0
tp1690
a(I184
F5.0
tp1691
a(I186
F5.0
tp1692
a(I196
F5.0
tp1693
a(I199
F5.0
tp1694
aa(lp1695
(I305
F5.0
tp1696
a(I285
F4.0
tp1697
a(I320
F4.0
tp1698
a(I287
F3.0
tp1699
a(I291
F3.0
tp1700
a(I293
F3.0
tp1701
a(I318
F3.0
tp1702
a(I330
F3.0
tp1703
a(I871
F3.0
tp1704
a(I989
F3.0
tp1705
aa(lp1706
(I177
F5.0
tp1707
a(I179
F5.0
tp1708
a(I186
F5.0
tp1709
a(I196
F5.0
tp1710
a(I479
F5.0
tp1711
a(I640
F5.0
tp1712
a(I8
F4.0
tp1713
a(I47
F4.0
tp1714
a(I57
F4.0
tp1715
a(I85
F4.0
tp1716
aa(lp1717
(I0
F5.0
tp1718
a(I99
F5.0
tp1719
a(I116
F5.0
tp1720
a(I126
F5.0
tp1721
a(I136
F5.0
tp1722
a(I146
F5.0
tp1723
a(I149
F5.0
tp1724
a(I234
F5.0
tp1725
a(I243
F5.0
tp1726
a(I267
F5.0
tp1727
aa(lp1728
(I6
F5.0
tp1729
a(I7
F5.0
tp1730
a(I21
F5.0
tp1731
a(I38
F5.0
tp1732
a(I55
F5.0
tp1733
a(I61
F5.0
tp1734
a(I81
F5.0
tp1735
a(I82
F5.0
tp1736
a(I88
F5.0
tp1737
a(I99
F5.0
tp1738
aa(lp1739
(I6
F5.0
tp1740
a(I14
F5.0
tp1741
a(I23
F5.0
tp1742
a(I24
F5.0
tp1743
a(I116
F5.0
tp1744
a(I124
F5.0
tp1745
a(I125
F5.0
tp1746
a(I126
F5.0
tp1747
a(I219
F5.0
tp1748
a(I244
F5.0
tp1749
aa(lp1750
(I22
F5.0
tp1751
a(I23
F5.0
tp1752
a(I31
F5.0
tp1753
a(I55
F5.0
tp1754
a(I92
F5.0
tp1755
a(I99
F5.0
tp1756
a(I126
F5.0
tp1757
a(I156
F5.0
tp1758
a(I159
F5.0
tp1759
a(I173
F5.0
tp1760
aa(lp1761
(I201
F5.0
tp1762
a(I271
F5.0
tp1763
a(I275
F5.0
tp1764
a(I314
F5.0
tp1765
a(I315
F5.0
tp1766
a(I13
F4.0
tp1767
a(I68
F4.0
tp1768
a(I97
F4.0
tp1769
a(I99
F4.0
tp1770
a(I185
F4.0
tp1771
aa(lp1772
(I49
F5.0
tp1773
a(I507
F5.0
tp1774
a(I1046
F5.0
tp1775
a(I0
F4.0
tp1776
a(I10
F4.0
tp1777
a(I24
F4.0
tp1778
a(I27
F4.0
tp1779
a(I78
F4.0
tp1780
a(I116
F4.0
tp1781
a(I120
F4.0
tp1782
aa(lp1783
(I315
F5.0
tp1784
a(I55
F4.0
tp1785
a(I63
F4.0
tp1786
a(I96
F4.0
tp1787
a(I97
F4.0
tp1788
a(I257
F4.0
tp1789
a(I271
F4.0
tp1790
a(I317
F4.0
tp1791
a(I346
F4.0
tp1792
a(I356
F4.0
tp1793
aa(lp1794
(I99
F5.0
tp1795
a(I116
F5.0
tp1796
a(I117
F5.0
tp1797
a(I120
F5.0
tp1798
a(I124
F5.0
tp1799
a(I147
F5.0
tp1800
a(I180
F5.0
tp1801
a(I244
F5.0
tp1802
a(I257
F5.0
tp1803
a(I281
F5.0
tp1804
aa(lp1805
(I14
F5.0
tp1806
a(I168
F5.0
tp1807
a(I180
F5.0
tp1808
a(I221
F5.0
tp1809
a(I257
F5.0
tp1810
a(I317
F5.0
tp1811
a(I325
F5.0
tp1812
a(I371
F5.0
tp1813
a(I431
F5.0
tp1814
a(I650
F5.0
tp1815
aa(lp1816
(I299
F5.0
tp1817
a(I312
F5.0
tp1818
a(I321
F5.0
tp1819
a(I322
F5.0
tp1820
a(I327
F5.0
tp1821
a(I346
F5.0
tp1822
a(I983
F5.0
tp1823
a(I257
F4.0
tp1824
a(I342
F4.0
tp1825
a(I750
F4.0
tp1826
aa(lp1827
(I7
F5.0
tp1828
a(I82
F5.0
tp1829
a(I95
F5.0
tp1830
a(I132
F5.0
tp1831
a(I136
F5.0
tp1832
a(I240
F5.0
tp1833
a(I317
F5.0
tp1834
a(I380
F5.0
tp1835
a(I434
F5.0
tp1836
a(I464
F5.0
tp1837
aa(lp1838
(I0
F5.0
tp1839
a(I14
F5.0
tp1840
a(I24
F5.0
tp1841
a(I116
F5.0
tp1842
a(I125
F5.0
tp1843
a(I150
F5.0
tp1844
a(I221
F5.0
tp1845
a(I224
F5.0
tp1846
a(I256
F5.0
tp1847
a(I281
F5.0
tp1848
aa(lp1849
(I49
F5.0
tp1850
a(I133
F5.0
tp1851
a(I171
F5.0
tp1852
a(I180
F5.0
tp1853
a(I210
F5.0
tp1854
a(I212
F5.0
tp1855
a(I257
F5.0
tp1856
a(I299
F5.0
tp1857
a(I330
F5.0
tp1858
a(I602
F5.0
tp1859
aa(lp1860
(I244
F5.0
tp1861
a(I291
F5.0
tp1862
a(I299
F5.0
tp1863
a(I321
F5.0
tp1864
a(I325
F5.0
tp1865
a(I748
F5.0
tp1866
a(I983
F5.0
tp1867
a(I303
F4.0
tp1868
a(I332
F4.0
tp1869
a(I677
F4.0
tp1870
aa(lp1871
(I271
F5.0
tp1872
a(I257
F4.0
tp1873
a(I261
F4.0
tp1874
a(I267
F4.0
tp1875
a(I268
F4.0
tp1876
a(I269
F4.0
tp1877
a(I291
F4.0
tp1878
a(I301
F4.0
tp1879
a(I302
F4.0
tp1880
a(I309
F4.0
tp1881
aa(lp1882
(I182
F5.0
tp1883
a(I123
F4.0
tp1884
a(I176
F4.0
tp1885
a(I219
F4.0
tp1886
a(I427
F4.0
tp1887
a(I462
F4.0
tp1888
a(I579
F4.0
tp1889
a(I581
F4.0
tp1890
a(I641
F4.0
tp1891
a(I22
F3.0
tp1892
aa(lp1893
(I241
F5.0
tp1894
a(I285
F5.0
tp1895
a(I291
F5.0
tp1896
a(I293
F5.0
tp1897
a(I300
F5.0
tp1898
a(I301
F5.0
tp1899
a(I302
F5.0
tp1900
a(I304
F5.0
tp1901
a(I305
F5.0
tp1902
a(I322
F5.0
tp1903
aa(lp1904
(I8
F5.0
tp1905
a(I10
F5.0
tp1906
a(I11
F5.0
tp1907
a(I13
F5.0
tp1908
a(I14
F5.0
tp1909
a(I27
F5.0
tp1910
a(I55
F5.0
tp1911
a(I64
F5.0
tp1912
a(I65
F5.0
tp1913
a(I68
F5.0
tp1914
aa(lp1915
(I10
F5.0
tp1916
a(I49
F5.0
tp1917
a(I63
F5.0
tp1918
a(I97
F5.0
tp1919
a(I126
F5.0
tp1920
a(I171
F5.0
tp1921
a(I214
F5.0
tp1922
a(I233
F5.0
tp1923
a(I418
F5.0
tp1924
a(I482
F5.0
tp1925
aa(lp1926
(I6
F5.0
tp1927
a(I49
F5.0
tp1928
a(I92
F5.0
tp1929
a(I99
F5.0
tp1930
a(I221
F5.0
tp1931
a(I245
F5.0
tp1932
a(I267
F5.0
tp1933
a(I271
F5.0
tp1934
a(I284
F5.0
tp1935
a(I292
F5.0
tp1936
aa(lp1937
(I11
F5.0
tp1938
a(I22
F5.0
tp1939
a(I49
F5.0
tp1940
a(I55
F5.0
tp1941
a(I88
F5.0
tp1942
a(I97
F5.0
tp1943
a(I99
F5.0
tp1944
a(I126
F5.0
tp1945
a(I134
F5.0
tp1946
a(I143
F5.0
tp1947
aa(lp1948
(I10
F5.0
tp1949
a(I11
F5.0
tp1950
a(I14
F5.0
tp1951
a(I21
F5.0
tp1952
a(I27
F5.0
tp1953
a(I49
F5.0
tp1954
a(I57
F5.0
tp1955
a(I63
F5.0
tp1956
a(I68
F5.0
tp1957
a(I72
F5.0
tp1958
aa(lp1959
(I257
F5.0
tp1960
a(I271
F5.0
tp1961
a(I287
F5.0
tp1962
a(I314
F5.0
tp1963
a(I315
F5.0
tp1964
a(I332
F5.0
tp1965
a(I681
F5.0
tp1966
a(I894
F5.0
tp1967
a(I913
F5.0
tp1968
a(I915
F5.0
tp1969
aa(lp1970
(I52
F5.0
tp1971
a(I55
F5.0
tp1972
a(I67
F5.0
tp1973
a(I82
F5.0
tp1974
a(I97
F5.0
tp1975
a(I110
F5.0
tp1976
a(I120
F5.0
tp1977
a(I155
F5.0
tp1978
a(I172
F5.0
tp1979
a(I195
F5.0
tp1980
aa(lp1981
(I24
F5.0
tp1982
a(I236
F5.0
tp1983
a(I6
F4.0
tp1984
a(I8
F4.0
tp1985
a(I120
F4.0
tp1986
a(I219
F4.0
tp1987
a(I221
F4.0
tp1988
a(I269
F4.0
tp1989
a(I273
F4.0
tp1990
a(I279
F4.0
tp1991
aa(lp1992
(I49
F5.0
tp1993
a(I68
F5.0
tp1994
a(I125
F5.0
tp1995
a(I171
F5.0
tp1996
a(I177
F5.0
tp1997
a(I180
F5.0
tp1998
a(I422
F5.0
tp1999
a(I478
F5.0
tp2000
a(I595
F5.0
tp2001
a(I0
F4.0
tp2002
aa(lp2003
(I176
F5.0
tp2004
a(I229
F5.0
tp2005
a(I273
F5.0
tp2006
a(I482
F5.0
tp2007
a(I484
F5.0
tp2008
a(I54
F4.0
tp2009
a(I158
F4.0
tp2010
a(I201
F4.0
tp2011
a(I211
F4.0
tp2012
a(I215
F4.0
tp2013
aa(lp2014
(I8
F5.0
tp2015
a(I56
F5.0
tp2016
a(I85
F5.0
tp2017
a(I99
F5.0
tp2018
a(I123
F5.0
tp2019
a(I126
F5.0
tp2020
a(I131
F5.0
tp2021
a(I133
F5.0
tp2022
a(I136
F5.0
tp2023
a(I169
F5.0
tp2024
aa(lp2025
(I27
F5.0
tp2026
a(I85
F5.0
tp2027
a(I126
F5.0
tp2028
a(I196
F5.0
tp2029
a(I268
F5.0
tp2030
a(I284
F5.0
tp2031
a(I286
F5.0
tp2032
a(I320
F5.0
tp2033
a(I422
F5.0
tp2034
a(I513
F5.0
tp2035
aa(lp2036
(I37
F5.0
tp2037
a(I43
F5.0
tp2038
a(I70
F5.0
tp2039
a(I76
F5.0
tp2040
a(I78
F5.0
tp2041
a(I97
F5.0
tp2042
a(I116
F5.0
tp2043
a(I158
F5.0
tp2044
a(I202
F5.0
tp2045
a(I225
F5.0
tp2046
aa(lp2047
(I7
F5.0
tp2048
a(I63
F5.0
tp2049
a(I64
F5.0
tp2050
a(I82
F5.0
tp2051
a(I115
F5.0
tp2052
a(I136
F5.0
tp2053
a(I167
F5.0
tp2054
a(I172
F5.0
tp2055
a(I178
F5.0
tp2056
a(I190
F5.0
tp2057
aa(lp2058
(I6
F5.0
tp2059
a(I10
F5.0
tp2060
a(I21
F5.0
tp2061
a(I63
F5.0
tp2062
a(I78
F5.0
tp2063
a(I95
F5.0
tp2064
a(I96
F5.0
tp2065
a(I97
F5.0
tp2066
a(I142
F5.0
tp2067
a(I152
F5.0
tp2068
aa(lp2069
(I0
F5.0
tp2070
a(I3
F5.0
tp2071
a(I7
F5.0
tp2072
a(I9
F5.0
tp2073
a(I13
F5.0
tp2074
a(I19
F5.0
tp2075
a(I49
F5.0
tp2076
a(I55
F5.0
tp2077
a(I88
F5.0
tp2078
a(I95
F5.0
tp2079
aa(lp2080
(I236
F5.0
tp2081
a(I271
F5.0
tp2082
a(I287
F5.0
tp2083
a(I301
F5.0
tp2084
a(I312
F5.0
tp2085
a(I470
F5.0
tp2086
a(I6
F4.0
tp2087
a(I14
F4.0
tp2088
a(I99
F4.0
tp2089
a(I116
F4.0
tp2090
aa(lp2091
(I85
F5.0
tp2092
a(I312
F5.0
tp2093
a(I314
F5.0
tp2094
a(I315
F5.0
tp2095
a(I271
F4.0
tp2096
a(I285
F4.0
tp2097
a(I299
F4.0
tp2098
a(I300
F4.0
tp2099
a(I301
F4.0
tp2100
a(I330
F4.0
tp2101
aa(lp2102
(I8
F5.0
tp2103
a(I99
F5.0
tp2104
a(I257
F5.0
tp2105
a(I283
F5.0
tp2106
a(I301
F5.0
tp2107
a(I1404
F5.0
tp2108
a(I6
F4.0
tp2109
a(I24
F4.0
tp2110
a(I49
F4.0
tp2111
a(I107
F4.0
tp2112
aa(lp2113
(I68
F5.0
tp2114
a(I99
F5.0
tp2115
a(I126
F5.0
tp2116
a(I198
F5.0
tp2117
a(I281
F5.0
tp2118
a(I484
F5.0
tp2119
a(I486
F5.0
tp2120
a(I0
F4.0
tp2121
a(I22
F4.0
tp2122
a(I24
F4.0
tp2123
aa(lp2124
(I11
F5.0
tp2125
a(I21
F5.0
tp2126
a(I27
F5.0
tp2127
a(I55
F5.0
tp2128
a(I63
F5.0
tp2129
a(I126
F5.0
tp2130
a(I135
F5.0
tp2131
a(I167
F5.0
tp2132
a(I172
F5.0
tp2133
a(I185
F5.0
tp2134
aa(lp2135
(I46
F5.0
tp2136
a(I99
F5.0
tp2137
a(I126
F5.0
tp2138
a(I131
F5.0
tp2139
a(I133
F5.0
tp2140
a(I134
F5.0
tp2141
a(I142
F5.0
tp2142
a(I180
F5.0
tp2143
a(I233
F5.0
tp2144
a(I312
F5.0
tp2145
aa(lp2146
(I7
F5.0
tp2147
a(I66
F5.0
tp2148
a(I152
F5.0
tp2149
a(I284
F5.0
tp2150
a(I285
F5.0
tp2151
a(I654
F5.0
tp2152
a(I662
F5.0
tp2153
a(I691
F5.0
tp2154
a(I24
F4.0
tp2155
a(I107
F4.0
tp2156
aa(lp2157
(I21
F5.0
tp2158
a(I49
F5.0
tp2159
a(I78
F5.0
tp2160
a(I81
F5.0
tp2161
a(I88
F5.0
tp2162
a(I95
F5.0
tp2163
a(I126
F5.0
tp2164
a(I171
F5.0
tp2165
a(I173
F5.0
tp2166
a(I175
F5.0
tp2167
aa(lp2168
(I49
F5.0
tp2169
a(I55
F5.0
tp2170
a(I80
F5.0
tp2171
a(I88
F5.0
tp2172
a(I100
F5.0
tp2173
a(I126
F5.0
tp2174
a(I134
F5.0
tp2175
a(I173
F5.0
tp2176
a(I182
F5.0
tp2177
a(I185
F5.0
tp2178
aa(lp2179
(I8
F5.0
tp2180
a(I115
F5.0
tp2181
a(I241
F5.0
tp2182
a(I267
F5.0
tp2183
a(I268
F5.0
tp2184
a(I285
F5.0
tp2185
a(I407
F5.0
tp2186
a(I474
F5.0
tp2187
a(I6
F4.0
tp2188
a(I13
F4.0
tp2189
aa(lp2190
(I0
F5.0
tp2191
a(I10
F5.0
tp2192
a(I27
F5.0
tp2193
a(I49
F5.0
tp2194
a(I61
F5.0
tp2195
a(I67
F5.0
tp2196
a(I68
F5.0
tp2197
a(I78
F5.0
tp2198
a(I81
F5.0
tp2199
a(I88
F5.0
tp2200
aa(lp2201
(I55
F5.0
tp2202
a(I92
F5.0
tp2203
a(I126
F5.0
tp2204
a(I159
F5.0
tp2205
a(I171
F5.0
tp2206
a(I178
F5.0
tp2207
a(I184
F5.0
tp2208
a(I199
F5.0
tp2209
a(I202
F5.0
tp2210
a(I233
F5.0
tp2211
aa(lp2212
(I603
F5.0
tp2213
a(I95
F4.0
tp2214
a(I194
F4.0
tp2215
a(I257
F4.0
tp2216
a(I268
F4.0
tp2217
a(I483
F4.0
tp2218
a(I515
F4.0
tp2219
a(I0
F3.0
tp2220
a(I171
F3.0
tp2221
a(I203
F3.0
tp2222
aa(lp2223
(I49
F5.0
tp2224
a(I149
F5.0
tp2225
a(I180
F5.0
tp2226
a(I247
F5.0
tp2227
a(I282
F5.0
tp2228
a(I287
F5.0
tp2229
a(I331
F5.0
tp2230
a(I23
F4.0
tp2231
a(I92
F4.0
tp2232
a(I116
F4.0
tp2233
aa(lp2234
(I8
F5.0
tp2235
a(I44
F5.0
tp2236
a(I169
F5.0
tp2237
a(I241
F5.0
tp2238
a(I291
F5.0
tp2239
a(I296
F5.0
tp2240
a(I301
F5.0
tp2241
a(I302
F5.0
tp2242
a(I317
F5.0
tp2243
a(I339
F5.0
tp2244
aa(lp2245
(I241
F4.0
tp2246
a(I288
F4.0
tp2247
a(I314
F4.0
tp2248
a(I315
F4.0
tp2249
a(I325
F4.0
tp2250
a(I332
F4.0
tp2251
a(I747
F4.0
tp2252
a(I257
F3.0
tp2253
a(I268
F3.0
tp2254
a(I293
F3.0
tp2255
aa(lp2256
(I271
F5.0
tp2257
a(I287
F5.0
tp2258
a(I301
F5.0
tp2259
a(I309
F5.0
tp2260
a(I312
F5.0
tp2261
a(I314
F5.0
tp2262
a(I345
F5.0
tp2263
a(I894
F5.0
tp2264
a(I257
F4.0
tp2265
a(I268
F4.0
tp2266
aa(lp2267
(I63
F5.0
tp2268
a(I126
F5.0
tp2269
a(I152
F5.0
tp2270
a(I186
F5.0
tp2271
a(I210
F5.0
tp2272
a(I215
F5.0
tp2273
a(I315
F5.0
tp2274
a(I317
F5.0
tp2275
a(I356
F5.0
tp2276
a(I482
F5.0
tp2277
aa(lp2278
(I87
F5.0
tp2279
a(I193
F5.0
tp2280
a(I196
F5.0
tp2281
a(I210
F5.0
tp2282
a(I215
F5.0
tp2283
a(I370
F5.0
tp2284
a(I434
F5.0
tp2285
a(I662
F5.0
tp2286
a(I65
F4.0
tp2287
a(I96
F4.0
tp2288
aa(lp2289
(I0
F5.0
tp2290
a(I49
F5.0
tp2291
a(I126
F5.0
tp2292
a(I250
F5.0
tp2293
a(I284
F5.0
tp2294
a(I812
F5.0
tp2295
a(I15
F4.0
tp2296
a(I180
F4.0
tp2297
a(I241
F4.0
tp2298
a(I292
F4.0
tp2299
aa(lp2300
(I0
F5.0
tp2301
a(I22
F5.0
tp2302
a(I49
F5.0
tp2303
a(I55
F5.0
tp2304
a(I72
F5.0
tp2305
a(I96
F5.0
tp2306
a(I97
F5.0
tp2307
a(I126
F5.0
tp2308
a(I133
F5.0
tp2309
a(I134
F5.0
tp2310
aa(lp2311
(I198
F5.0
tp2312
a(I204
F5.0
tp2313
a(I214
F5.0
tp2314
a(I256
F5.0
tp2315
a(I422
F5.0
tp2316
a(I116
F4.0
tp2317
a(I126
F4.0
tp2318
a(I285
F4.0
tp2319
a(I456
F4.0
tp2320
a(I461
F4.0
tp2321
aa(lp2322
(I86
F5.0
tp2323
a(I196
F5.0
tp2324
a(I198
F5.0
tp2325
a(I245
F5.0
tp2326
a(I267
F5.0
tp2327
a(I316
F5.0
tp2328
a(I317
F5.0
tp2329
a(I381
F5.0
tp2330
a(I526
F5.0
tp2331
a(I527
F5.0
tp2332
aa(lp2333
(I11
F5.0
tp2334
a(I23
F5.0
tp2335
a(I41
F5.0
tp2336
a(I47
F5.0
tp2337
a(I49
F5.0
tp2338
a(I54
F5.0
tp2339
a(I55
F5.0
tp2340
a(I63
F5.0
tp2341
a(I78
F5.0
tp2342
a(I96
F5.0
tp2343
aa(lp2344
(I6
F5.0
tp2345
a(I10
F5.0
tp2346
a(I11
F5.0
tp2347
a(I22
F5.0
tp2348
a(I41
F5.0
tp2349
a(I55
F5.0
tp2350
a(I63
F5.0
tp2351
a(I131
F5.0
tp2352
a(I150
F5.0
tp2353
a(I155
F5.0
tp2354
aa(lp2355
(I49
F5.0
tp2356
a(I55
F5.0
tp2357
a(I86
F5.0
tp2358
a(I97
F5.0
tp2359
a(I131
F5.0
tp2360
a(I150
F5.0
tp2361
a(I167
F5.0
tp2362
a(I175
F5.0
tp2363
a(I182
F5.0
tp2364
a(I194
F5.0
tp2365
aa(lp2366
(I3
F5.0
tp2367
a(I6
F5.0
tp2368
a(I10
F5.0
tp2369
a(I11
F5.0
tp2370
a(I21
F5.0
tp2371
a(I41
F5.0
tp2372
a(I54
F5.0
tp2373
a(I55
F5.0
tp2374
a(I63
F5.0
tp2375
a(I68
F5.0
tp2376
aa(lp2377
(I21
F5.0
tp2378
a(I55
F5.0
tp2379
a(I78
F5.0
tp2380
a(I81
F5.0
tp2381
a(I194
F5.0
tp2382
a(I221
F5.0
tp2383
a(I230
F5.0
tp2384
a(I402
F5.0
tp2385
a(I577
F5.0
tp2386
a(I678
F5.0
tp2387
aa(lp2388
(I11
F5.0
tp2389
a(I97
F5.0
tp2390
a(I175
F5.0
tp2391
a(I182
F5.0
tp2392
a(I208
F5.0
tp2393
a(I515
F5.0
tp2394
a(I656
F5.0
tp2395
a(I1072
F5.0
tp2396
a(I22
F4.0
tp2397
a(I32
F4.0
tp2398
aa(lp2399
(I113
F5.0
tp2400
a(I131
F5.0
tp2401
a(I178
F5.0
tp2402
a(I214
F5.0
tp2403
a(I222
F5.0
tp2404
a(I257
F5.0
tp2405
a(I268
F5.0
tp2406
a(I381
F5.0
tp2407
a(I432
F5.0
tp2408
a(I615
F5.0
tp2409
aa(lp2410
(I268
F5.0
tp2411
a(I285
F5.0
tp2412
a(I287
F5.0
tp2413
a(I299
F5.0
tp2414
a(I267
F4.0
tp2415
a(I288
F4.0
tp2416
a(I293
F4.0
tp2417
a(I297
F4.0
tp2418
a(I300
F4.0
tp2419
a(I302
F4.0
tp2420
aa(lp2421
(I11
F5.0
tp2422
a(I23
F5.0
tp2423
a(I41
F5.0
tp2424
a(I47
F5.0
tp2425
a(I55
F5.0
tp2426
a(I63
F5.0
tp2427
a(I95
F5.0
tp2428
a(I99
F5.0
tp2429
a(I128
F5.0
tp2430
a(I149
F5.0
tp2431
aa(lp2432
(I6
F5.0
tp2433
a(I8
F5.0
tp2434
a(I10
F5.0
tp2435
a(I11
F5.0
tp2436
a(I21
F5.0
tp2437
a(I27
F5.0
tp2438
a(I30
F5.0
tp2439
a(I47
F5.0
tp2440
a(I52
F5.0
tp2441
a(I55
F5.0
tp2442
aa(lp2443
(I21
F5.0
tp2444
a(I68
F5.0
tp2445
a(I70
F5.0
tp2446
a(I94
F5.0
tp2447
a(I116
F5.0
tp2448
a(I154
F5.0
tp2449
a(I172
F5.0
tp2450
a(I215
F5.0
tp2451
a(I236
F5.0
tp2452
a(I297
F5.0
tp2453
aa(lp2454
(I21
F5.0
tp2455
a(I96
F5.0
tp2456
a(I312
F5.0
tp2457
a(I317
F5.0
tp2458
a(I401
F5.0
tp2459
a(I661
F5.0
tp2460
a(I1038
F5.0
tp2461
a(I14
F4.0
tp2462
a(I27
F4.0
tp2463
a(I50
F4.0
tp2464
aa(lp2465
(I21
F5.0
tp2466
a(I97
F5.0
tp2467
a(I135
F5.0
tp2468
a(I171
F5.0
tp2469
a(I193
F5.0
tp2470
a(I214
F5.0
tp2471
a(I236
F5.0
tp2472
a(I417
F5.0
tp2473
a(I426
F5.0
tp2474
a(I477
F5.0
tp2475
aa(lp2476
(I8
F5.0
tp2477
a(I11
F5.0
tp2478
a(I13
F5.0
tp2479
a(I88
F5.0
tp2480
a(I97
F5.0
tp2481
a(I168
F5.0
tp2482
a(I202
F5.0
tp2483
a(I241
F5.0
tp2484
a(I257
F5.0
tp2485
a(I407
F5.0
tp2486
aa(lp2487
(I6
F5.0
tp2488
a(I12
F5.0
tp2489
a(I92
F5.0
tp2490
a(I99
F5.0
tp2491
a(I128
F5.0
tp2492
a(I136
F5.0
tp2493
a(I292
F5.0
tp2494
a(I294
F5.0
tp2495
a(I13
F4.0
tp2496
a(I14
F4.0
tp2497
aa(lp2498
(I271
F5.0
tp2499
a(I285
F5.0
tp2500
a(I312
F5.0
tp2501
a(I689
F5.0
tp2502
a(I811
F5.0
tp2503
a(I287
F4.0
tp2504
a(I426
F4.0
tp2505
a(I650
F4.0
tp2506
a(I654
F4.0
tp2507
a(I97
F3.0
tp2508
aa(lp2509
(I301
F5.0
tp2510
a(I310
F5.0
tp2511
a(I343
F5.0
tp2512
a(I897
F5.0
tp2513
a(I268
F4.0
tp2514
a(I285
F4.0
tp2515
a(I287
F4.0
tp2516
a(I339
F4.0
tp2517
a(I348
F4.0
tp2518
a(I881
F4.0
tp2519
aa(lp2520
(I0
F5.0
tp2521
a(I7
F5.0
tp2522
a(I21
F5.0
tp2523
a(I27
F5.0
tp2524
a(I49
F5.0
tp2525
a(I63
F5.0
tp2526
a(I70
F5.0
tp2527
a(I78
F5.0
tp2528
a(I81
F5.0
tp2529
a(I94
F5.0
tp2530
aa(lp2531
(I125
F5.0
tp2532
a(I470
F5.0
tp2533
a(I923
F5.0
tp2534
a(I14
F4.0
tp2535
a(I49
F4.0
tp2536
a(I120
F4.0
tp2537
a(I180
F4.0
tp2538
a(I251
F4.0
tp2539
a(I288
F4.0
tp2540
a(I299
F4.0
tp2541
aa(lp2542
(I47
F5.0
tp2543
a(I51
F5.0
tp2544
a(I55
F5.0
tp2545
a(I80
F5.0
tp2546
a(I90
F5.0
tp2547
a(I95
F5.0
tp2548
a(I99
F5.0
tp2549
a(I131
F5.0
tp2550
a(I169
F5.0
tp2551
a(I174
F5.0
tp2552
aa(lp2553
(I8
F5.0
tp2554
a(I22
F5.0
tp2555
a(I46
F5.0
tp2556
a(I47
F5.0
tp2557
a(I55
F5.0
tp2558
a(I56
F5.0
tp2559
a(I63
F5.0
tp2560
a(I68
F5.0
tp2561
a(I69
F5.0
tp2562
a(I70
F5.0
tp2563
aa(lp2564
(I7
F5.0
tp2565
a(I90
F5.0
tp2566
a(I98
F5.0
tp2567
a(I133
F5.0
tp2568
a(I164
F5.0
tp2569
a(I165
F5.0
tp2570
a(I169
F5.0
tp2571
a(I177
F5.0
tp2572
a(I193
F5.0
tp2573
a(I196
F5.0
tp2574
aa(lp2575
(I49
F5.0
tp2576
a(I69
F5.0
tp2577
a(I178
F5.0
tp2578
a(I192
F5.0
tp2579
a(I193
F5.0
tp2580
a(I196
F5.0
tp2581
a(I210
F5.0
tp2582
a(I274
F5.0
tp2583
a(I317
F5.0
tp2584
a(I343
F5.0
tp2585
aa(lp2586
(I8
F5.0
tp2587
a(I14
F5.0
tp2588
a(I50
F5.0
tp2589
a(I55
F5.0
tp2590
a(I56
F5.0
tp2591
a(I63
F5.0
tp2592
a(I68
F5.0
tp2593
a(I96
F5.0
tp2594
a(I97
F5.0
tp2595
a(I126
F5.0
tp2596
aa(lp2597
(I63
F5.0
tp2598
a(I99
F5.0
tp2599
a(I126
F5.0
tp2600
a(I133
F5.0
tp2601
a(I168
F5.0
tp2602
a(I182
F5.0
tp2603
a(I407
F5.0
tp2604
a(I473
F5.0
tp2605
a(I478
F5.0
tp2606
a(I482
F5.0
tp2607
aa(lp2608
(I285
F5.0
tp2609
a(I297
F5.0
tp2610
a(I110
F4.0
tp2611
a(I120
F4.0
tp2612
a(I256
F4.0
tp2613
a(I299
F4.0
tp2614
a(I404
F4.0
tp2615
a(I457
F4.0
tp2616
a(I470
F4.0
tp2617
a(I537
F4.0
tp2618
aa(lp2619
(I7
F5.0
tp2620
a(I8
F5.0
tp2621
a(I9
F5.0
tp2622
a(I11
F5.0
tp2623
a(I13
F5.0
tp2624
a(I38
F5.0
tp2625
a(I41
F5.0
tp2626
a(I44
F5.0
tp2627
a(I49
F5.0
tp2628
a(I57
F5.0
tp2629
aa(lp2630
(I241
F5.0
tp2631
a(I268
F5.0
tp2632
a(I271
F5.0
tp2633
a(I285
F5.0
tp2634
a(I287
F5.0
tp2635
a(I300
F5.0
tp2636
a(I301
F5.0
tp2637
a(I312
F5.0
tp2638
a(I894
F5.0
tp2639
a(I897
F5.0
tp2640
aa(lp2641
(I285
F5.0
tp2642
a(I287
F5.0
tp2643
a(I749
F5.0
tp2644
a(I879
F5.0
tp2645
a(I267
F4.0
tp2646
a(I291
F4.0
tp2647
a(I299
F4.0
tp2648
a(I306
F4.0
tp2649
a(I309
F4.0
tp2650
a(I312
F4.0
tp2651
aa(lp2652
(I267
F5.0
tp2653
a(I274
F5.0
tp2654
a(I304
F5.0
tp2655
a(I305
F5.0
tp2656
a(I330
F5.0
tp2657
a(I360
F5.0
tp2658
a(I739
F5.0
tp2659
a(I933
F5.0
tp2660
a(I1136
F5.0
tp2661
a(I1151
F5.0
tp2662
aa(lp2663
(I7
F5.0
tp2664
a(I85
F5.0
tp2665
a(I156
F5.0
tp2666
a(I190
F5.0
tp2667
a(I220
F5.0
tp2668
a(I284
F5.0
tp2669
a(I316
F5.0
tp2670
a(I510
F5.0
tp2671
a(I581
F5.0
tp2672
a(I631
F5.0
tp2673
aa(lp2674
(I2
F5.0
tp2675
a(I8
F5.0
tp2676
a(I25
F5.0
tp2677
a(I41
F5.0
tp2678
a(I49
F5.0
tp2679
a(I55
F5.0
tp2680
a(I63
F5.0
tp2681
a(I67
F5.0
tp2682
a(I88
F5.0
tp2683
a(I100
F5.0
tp2684
aa(lp2685
(I1027
F5.0
tp2686
a(I1032
F5.0
tp2687
a(I49
F4.0
tp2688
a(I111
F4.0
tp2689
a(I180
F4.0
tp2690
a(I221
F4.0
tp2691
a(I257
F4.0
tp2692
a(I299
F4.0
tp2693
a(I595
F4.0
tp2694
a(I596
F4.0
tp2695
aa(lp2696
(I11
F5.0
tp2697
a(I49
F5.0
tp2698
a(I67
F5.0
tp2699
a(I80
F5.0
tp2700
a(I108
F5.0
tp2701
a(I150
F5.0
tp2702
a(I171
F5.0
tp2703
a(I172
F5.0
tp2704
a(I177
F5.0
tp2705
a(I180
F5.0
tp2706
aa(lp2707
(I27
F5.0
tp2708
a(I49
F5.0
tp2709
a(I63
F5.0
tp2710
a(I69
F5.0
tp2711
a(I110
F5.0
tp2712
a(I257
F5.0
tp2713
a(I735
F5.0
tp2714
a(I0
F4.0
tp2715
a(I6
F4.0
tp2716
a(I57
F4.0
tp2717
aa(lp2718
(I10
F5.0
tp2719
a(I49
F5.0
tp2720
a(I63
F5.0
tp2721
a(I88
F5.0
tp2722
a(I97
F5.0
tp2723
a(I113
F5.0
tp2724
a(I116
F5.0
tp2725
a(I126
F5.0
tp2726
a(I155
F5.0
tp2727
a(I175
F5.0
tp2728
aa(lp2729
(I6
F5.0
tp2730
a(I8
F5.0
tp2731
a(I10
F5.0
tp2732
a(I11
F5.0
tp2733
a(I21
F5.0
tp2734
a(I41
F5.0
tp2735
a(I54
F5.0
tp2736
a(I55
F5.0
tp2737
a(I57
F5.0
tp2738
a(I63
F5.0
tp2739
aa(lp2740
(I11
F5.0
tp2741
a(I49
F5.0
tp2742
a(I54
F5.0
tp2743
a(I63
F5.0
tp2744
a(I68
F5.0
tp2745
a(I70
F5.0
tp2746
a(I90
F5.0
tp2747
a(I91
F5.0
tp2748
a(I94
F5.0
tp2749
a(I97
F5.0
tp2750
aa(lp2751
(I21
F5.0
tp2752
a(I44
F5.0
tp2753
a(I49
F5.0
tp2754
a(I63
F5.0
tp2755
a(I78
F5.0
tp2756
a(I131
F5.0
tp2757
a(I143
F5.0
tp2758
a(I150
F5.0
tp2759
a(I171
F5.0
tp2760
a(I182
F5.0
tp2761
aa(lp2762
(I0
F5.0
tp2763
a(I8
F5.0
tp2764
a(I99
F5.0
tp2765
a(I123
F5.0
tp2766
a(I148
F5.0
tp2767
a(I267
F5.0
tp2768
a(I274
F5.0
tp2769
a(I275
F5.0
tp2770
a(I285
F5.0
tp2771
a(I409
F5.0
tp2772
aa(lp2773
(I0
F5.0
tp2774
a(I11
F5.0
tp2775
a(I21
F5.0
tp2776
a(I63
F5.0
tp2777
a(I78
F5.0
tp2778
a(I86
F5.0
tp2779
a(I95
F5.0
tp2780
a(I97
F5.0
tp2781
a(I116
F5.0
tp2782
a(I120
F5.0
tp2783
aa(lp2784
(I7
F5.0
tp2785
a(I49
F5.0
tp2786
a(I68
F5.0
tp2787
a(I96
F5.0
tp2788
a(I132
F5.0
tp2789
a(I134
F5.0
tp2790
a(I171
F5.0
tp2791
a(I173
F5.0
tp2792
a(I180
F5.0
tp2793
a(I209
F5.0
tp2794
aa(lp2795
(I55
F5.0
tp2796
a(I97
F5.0
tp2797
a(I218
F5.0
tp2798
a(I233
F5.0
tp2799
a(I248
F5.0
tp2800
a(I323
F5.0
tp2801
a(I681
F5.0
tp2802
a(I762
F5.0
tp2803
a(I146
F4.0
tp2804
a(I184
F4.0
tp2805
aa(lp2806
(I0
F5.0
tp2807
a(I1
F5.0
tp2808
a(I3
F5.0
tp2809
a(I4
F5.0
tp2810
a(I10
F5.0
tp2811
a(I11
F5.0
tp2812
a(I14
F5.0
tp2813
a(I21
F5.0
tp2814
a(I24
F5.0
tp2815
a(I30
F5.0
tp2816
aa(lp2817
(I13
F5.0
tp2818
a(I49
F5.0
tp2819
a(I56
F5.0
tp2820
a(I58
F5.0
tp2821
a(I59
F5.0
tp2822
a(I60
F5.0
tp2823
a(I99
F5.0
tp2824
a(I180
F5.0
tp2825
a(I275
F5.0
tp2826
a(I284
F5.0
tp2827
aa(lp2828
(I271
F5.0
tp2829
a(I285
F5.0
tp2830
a(I299
F5.0
tp2831
a(I309
F5.0
tp2832
a(I312
F5.0
tp2833
a(I325
F5.0
tp2834
a(I331
F5.0
tp2835
a(I747
F5.0
tp2836
a(I750
F5.0
tp2837
a(I872
F5.0
tp2838
aa(lp2839
(I11
F5.0
tp2840
a(I153
F5.0
tp2841
a(I167
F5.0
tp2842
a(I179
F5.0
tp2843
a(I312
F5.0
tp2844
a(I316
F5.0
tp2845
a(I356
F5.0
tp2846
a(I474
F5.0
tp2847
a(I1134
F5.0
tp2848
a(I38
F4.0
tp2849
aa(lp2850
(I269
F5.0
tp2851
a(I312
F5.0
tp2852
a(I325
F5.0
tp2853
a(I333
F5.0
tp2854
a(I361
F5.0
tp2855
a(I881
F5.0
tp2856
a(I890
F5.0
tp2857
a(I989
F5.0
tp2858
a(I1024
F5.0
tp2859
a(I1104
F5.0
tp2860
aa(lp2861
(I124
F5.0
tp2862
a(I242
F5.0
tp2863
a(I299
F5.0
tp2864
a(I338
F5.0
tp2865
a(I339
F5.0
tp2866
a(I358
F5.0
tp2867
a(I409
F5.0
tp2868
a(I686
F5.0
tp2869
a(I874
F5.0
tp2870
a(I891
F5.0
tp2871
aa(lp2872
(I63
F5.0
tp2873
a(I130
F5.0
tp2874
a(I317
F5.0
tp2875
a(I485
F5.0
tp2876
a(I698
F5.0
tp2877
a(I708
F5.0
tp2878
a(I1013
F5.0
tp2879
a(I6
F4.0
tp2880
a(I10
F4.0
tp2881
a(I21
F4.0
tp2882
aa(lp2883
(I0
F5.0
tp2884
a(I21
F5.0
tp2885
a(I49
F5.0
tp2886
a(I63
F5.0
tp2887
a(I68
F5.0
tp2888
a(I94
F5.0
tp2889
a(I99
F5.0
tp2890
a(I131
F5.0
tp2891
a(I132
F5.0
tp2892
a(I133
F5.0
tp2893
aa(lp2894
(I6
F5.0
tp2895
a(I11
F5.0
tp2896
a(I18
F5.0
tp2897
a(I22
F5.0
tp2898
a(I41
F5.0
tp2899
a(I46
F5.0
tp2900
a(I55
F5.0
tp2901
a(I92
F5.0
tp2902
a(I97
F5.0
tp2903
a(I99
F5.0
tp2904
aa(lp2905
(I0
F5.0
tp2906
a(I99
F5.0
tp2907
a(I116
F5.0
tp2908
a(I236
F5.0
tp2909
a(I272
F5.0
tp2910
a(I281
F5.0
tp2911
a(I297
F5.0
tp2912
a(I299
F5.0
tp2913
a(I590
F5.0
tp2914
a(I741
F5.0
tp2915
aa(lp2916
(I99
F5.0
tp2917
a(I274
F5.0
tp2918
a(I8
F4.0
tp2919
a(I13
F4.0
tp2920
a(I123
F4.0
tp2921
a(I267
F4.0
tp2922
a(I271
F4.0
tp2923
a(I284
F4.0
tp2924
a(I285
F4.0
tp2925
a(I312
F4.0
tp2926
aa(lp2927
(I6
F5.0
tp2928
a(I11
F5.0
tp2929
a(I23
F5.0
tp2930
a(I32
F5.0
tp2931
a(I46
F5.0
tp2932
a(I49
F5.0
tp2933
a(I55
F5.0
tp2934
a(I63
F5.0
tp2935
a(I88
F5.0
tp2936
a(I97
F5.0
tp2937
aa(lp2938
(I49
F5.0
tp2939
a(I58
F5.0
tp2940
a(I59
F5.0
tp2941
a(I95
F5.0
tp2942
a(I113
F5.0
tp2943
a(I133
F5.0
tp2944
a(I152
F5.0
tp2945
a(I168
F5.0
tp2946
a(I171
F5.0
tp2947
a(I173
F5.0
tp2948
aa(lp2949
(I22
F5.0
tp2950
a(I41
F5.0
tp2951
a(I47
F5.0
tp2952
a(I55
F5.0
tp2953
a(I99
F5.0
tp2954
a(I107
F5.0
tp2955
a(I123
F5.0
tp2956
a(I130
F5.0
tp2957
a(I131
F5.0
tp2958
a(I150
F5.0
tp2959
aa(lp2960
(I4
F5.0
tp2961
a(I24
F5.0
tp2962
a(I25
F5.0
tp2963
a(I49
F5.0
tp2964
a(I55
F5.0
tp2965
a(I59
F5.0
tp2966
a(I69
F5.0
tp2967
a(I87
F5.0
tp2968
a(I89
F5.0
tp2969
a(I92
F5.0
tp2970
aa(lp2971
(I3
F5.0
tp2972
a(I21
F5.0
tp2973
a(I27
F5.0
tp2974
a(I49
F5.0
tp2975
a(I63
F5.0
tp2976
a(I69
F5.0
tp2977
a(I96
F5.0
tp2978
a(I97
F5.0
tp2979
a(I99
F5.0
tp2980
a(I126
F5.0
tp2981
aa(lp2982
(I11
F5.0
tp2983
a(I21
F5.0
tp2984
a(I22
F5.0
tp2985
a(I55
F5.0
tp2986
a(I78
F5.0
tp2987
a(I95
F5.0
tp2988
a(I126
F5.0
tp2989
a(I133
F5.0
tp2990
a(I173
F5.0
tp2991
a(I174
F5.0
tp2992
aa(lp2993
(I267
F5.0
tp2994
a(I901
F5.0
tp2995
a(I271
F4.0
tp2996
a(I302
F4.0
tp2997
a(I304
F4.0
tp2998
a(I310
F4.0
tp2999
a(I314
F4.0
tp3000
a(I315
F4.0
tp3001
a(I318
F4.0
tp3002
a(I320
F4.0
tp3003
aa(lp3004
(I8
F5.0
tp3005
a(I14
F5.0
tp3006
a(I24
F5.0
tp3007
a(I49
F5.0
tp3008
a(I68
F5.0
tp3009
a(I82
F5.0
tp3010
a(I97
F5.0
tp3011
a(I99
F5.0
tp3012
a(I149
F5.0
tp3013
a(I163
F5.0
tp3014
aa(lp3015
(I0
F4.0
tp3016
a(I27
F4.0
tp3017
a(I49
F4.0
tp3018
a(I97
F4.0
tp3019
a(I100
F4.0
tp3020
a(I143
F4.0
tp3021
a(I163
F4.0
tp3022
a(I173
F4.0
tp3023
a(I175
F4.0
tp3024
a(I180
F4.0
tp3025
aa(lp3026
(I0
F5.0
tp3027
a(I6
F5.0
tp3028
a(I8
F5.0
tp3029
a(I10
F5.0
tp3030
a(I11
F5.0
tp3031
a(I21
F5.0
tp3032
a(I22
F5.0
tp3033
a(I49
F5.0
tp3034
a(I55
F5.0
tp3035
a(I63
F5.0
tp3036
aa(lp3037
(I272
F5.0
tp3038
a(I285
F5.0
tp3039
a(I0
F4.0
tp3040
a(I8
F4.0
tp3041
a(I14
F4.0
tp3042
a(I23
F4.0
tp3043
a(I24
F4.0
tp3044
a(I92
F4.0
tp3045
a(I99
F4.0
tp3046
a(I110
F4.0
tp3047
aa(lp3048
(I21
F5.0
tp3049
a(I172
F5.0
tp3050
a(I268
F5.0
tp3051
a(I285
F5.0
tp3052
a(I287
F5.0
tp3053
a(I305
F5.0
tp3054
a(I312
F5.0
tp3055
a(I514
F5.0
tp3056
a(I524
F5.0
tp3057
a(I602
F5.0
tp3058
aa(lp3059
(I6
F5.0
tp3060
a(I23
F5.0
tp3061
a(I24
F5.0
tp3062
a(I26
F5.0
tp3063
a(I82
F5.0
tp3064
a(I108
F5.0
tp3065
a(I113
F5.0
tp3066
a(I116
F5.0
tp3067
a(I127
F5.0
tp3068
a(I151
F5.0
tp3069
aa(lp3070
(I7
F5.0
tp3071
a(I8
F5.0
tp3072
a(I10
F5.0
tp3073
a(I11
F5.0
tp3074
a(I12
F5.0
tp3075
a(I21
F5.0
tp3076
a(I39
F5.0
tp3077
a(I52
F5.0
tp3078
a(I55
F5.0
tp3079
a(I65
F5.0
tp3080
aa(lp3081
(I270
F5.0
tp3082
a(I303
F5.0
tp3083
a(I689
F5.0
tp3084
a(I747
F5.0
tp3085
a(I287
F4.0
tp3086
a(I299
F4.0
tp3087
a(I309
F4.0
tp3088
a(I321
F4.0
tp3089
a(I331
F4.0
tp3090
a(I537
F4.0
tp3091
aa(lp3092
(I257
F5.0
tp3093
a(I301
F5.0
tp3094
a(I326
F5.0
tp3095
a(I261
F4.0
tp3096
a(I267
F4.0
tp3097
a(I268
F4.0
tp3098
a(I287
F4.0
tp3099
a(I293
F4.0
tp3100
a(I304
F4.0
tp3101
a(I318
F4.0
tp3102
aa(lp3103
(I41
F5.0
tp3104
a(I49
F5.0
tp3105
a(I55
F5.0
tp3106
a(I90
F5.0
tp3107
a(I94
F5.0
tp3108
a(I124
F5.0
tp3109
a(I167
F5.0
tp3110
a(I172
F5.0
tp3111
a(I185
F5.0
tp3112
a(I201
F5.0
tp3113
aa(lp3114
(I267
F5.0
tp3115
a(I271
F5.0
tp3116
a(I300
F5.0
tp3117
a(I302
F5.0
tp3118
a(I314
F5.0
tp3119
a(I346
F5.0
tp3120
a(I257
F4.0
tp3121
a(I261
F4.0
tp3122
a(I268
F4.0
tp3123
a(I285
F4.0
tp3124
aa(lp3125
(I149
F5.0
tp3126
a(I150
F5.0
tp3127
a(I197
F5.0
tp3128
a(I287
F5.0
tp3129
a(I301
F5.0
tp3130
a(I312
F5.0
tp3131
a(I356
F5.0
tp3132
a(I537
F5.0
tp3133
a(I99
F4.0
tp3134
a(I167
F4.0
tp3135
aa(lp3136
(I3
F5.0
tp3137
a(I10
F5.0
tp3138
a(I33
F5.0
tp3139
a(I56
F5.0
tp3140
a(I69
F5.0
tp3141
a(I72
F5.0
tp3142
a(I82
F5.0
tp3143
a(I84
F5.0
tp3144
a(I94
F5.0
tp3145
a(I100
F5.0
tp3146
aa(lp3147
(I0
F5.0
tp3148
a(I8
F5.0
tp3149
a(I10
F5.0
tp3150
a(I27
F5.0
tp3151
a(I38
F5.0
tp3152
a(I49
F5.0
tp3153
a(I55
F5.0
tp3154
a(I63
F5.0
tp3155
a(I99
F5.0
tp3156
a(I116
F5.0
tp3157
aa(lp3158
(I12
F5.0
tp3159
a(I21
F5.0
tp3160
a(I63
F5.0
tp3161
a(I68
F5.0
tp3162
a(I97
F5.0
tp3163
a(I99
F5.0
tp3164
a(I126
F5.0
tp3165
a(I135
F5.0
tp3166
a(I177
F5.0
tp3167
a(I179
F5.0
tp3168
aa(lp3169
(I1015
F5.0
tp3170
a(I6
F4.0
tp3171
a(I23
F4.0
tp3172
a(I116
F4.0
tp3173
a(I454
F4.0
tp3174
a(I470
F4.0
tp3175
a(I684
F4.0
tp3176
a(I741
F4.0
tp3177
a(I848
F4.0
tp3178
a(I0
F3.0
tp3179
aa(lp3180
(I0
F5.0
tp3181
a(I21
F5.0
tp3182
a(I27
F5.0
tp3183
a(I49
F5.0
tp3184
a(I70
F5.0
tp3185
a(I142
F5.0
tp3186
a(I157
F5.0
tp3187
a(I171
F5.0
tp3188
a(I173
F5.0
tp3189
a(I180
F5.0
tp3190
aa(lp3191
(I0
F5.0
tp3192
a(I4
F5.0
tp3193
a(I6
F5.0
tp3194
a(I8
F5.0
tp3195
a(I11
F5.0
tp3196
a(I14
F5.0
tp3197
a(I21
F5.0
tp3198
a(I23
F5.0
tp3199
a(I47
F5.0
tp3200
a(I49
F5.0
tp3201
aa(lp3202
(I9
F5.0
tp3203
a(I10
F5.0
tp3204
a(I47
F5.0
tp3205
a(I55
F5.0
tp3206
a(I57
F5.0
tp3207
a(I63
F5.0
tp3208
a(I78
F5.0
tp3209
a(I82
F5.0
tp3210
a(I97
F5.0
tp3211
a(I99
F5.0
tp3212
aa(lp3213
(I44
F5.0
tp3214
a(I47
F5.0
tp3215
a(I49
F5.0
tp3216
a(I63
F5.0
tp3217
a(I88
F5.0
tp3218
a(I126
F5.0
tp3219
a(I133
F5.0
tp3220
a(I134
F5.0
tp3221
a(I156
F5.0
tp3222
a(I171
F5.0
tp3223
aa(lp3224
(I0
F5.0
tp3225
a(I49
F5.0
tp3226
a(I120
F5.0
tp3227
a(I126
F5.0
tp3228
a(I150
F5.0
tp3229
a(I180
F5.0
tp3230
a(I247
F5.0
tp3231
a(I248
F5.0
tp3232
a(I249
F5.0
tp3233
a(I268
F5.0
tp3234
aa(lp3235
(I6
F5.0
tp3236
a(I24
F5.0
tp3237
a(I46
F5.0
tp3238
a(I49
F5.0
tp3239
a(I51
F5.0
tp3240
a(I59
F5.0
tp3241
a(I64
F5.0
tp3242
a(I68
F5.0
tp3243
a(I69
F5.0
tp3244
a(I70
F5.0
tp3245
aa(lp3246
(I0
F5.0
tp3247
a(I6
F5.0
tp3248
a(I10
F5.0
tp3249
a(I18
F5.0
tp3250
a(I19
F5.0
tp3251
a(I22
F5.0
tp3252
a(I44
F5.0
tp3253
a(I47
F5.0
tp3254
a(I49
F5.0
tp3255
a(I54
F5.0
tp3256
aa(lp3257
(I7
F5.0
tp3258
a(I11
F5.0
tp3259
a(I49
F5.0
tp3260
a(I55
F5.0
tp3261
a(I56
F5.0
tp3262
a(I69
F5.0
tp3263
a(I85
F5.0
tp3264
a(I96
F5.0
tp3265
a(I97
F5.0
tp3266
a(I99
F5.0
tp3267
aa(lp3268
(I0
F5.0
tp3269
a(I7
F5.0
tp3270
a(I49
F5.0
tp3271
a(I70
F5.0
tp3272
a(I78
F5.0
tp3273
a(I87
F5.0
tp3274
a(I126
F5.0
tp3275
a(I131
F5.0
tp3276
a(I133
F5.0
tp3277
a(I142
F5.0
tp3278
aa(lp3279
(I9
F5.0
tp3280
a(I11
F5.0
tp3281
a(I58
F5.0
tp3282
a(I59
F5.0
tp3283
a(I82
F5.0
tp3284
a(I88
F5.0
tp3285
a(I126
F5.0
tp3286
a(I149
F5.0
tp3287
a(I169
F5.0
tp3288
a(I172
F5.0
tp3289
aa(lp3290
(I871
F5.0
tp3291
a(I875
F5.0
tp3292
a(I880
F5.0
tp3293
a(I1093
F5.0
tp3294
a(I242
F4.0
tp3295
a(I256
F4.0
tp3296
a(I287
F4.0
tp3297
a(I299
F4.0
tp3298
a(I321
F4.0
tp3299
a(I408
F4.0
tp3300
aa(lp3301
(I42
F5.0
tp3302
a(I49
F5.0
tp3303
a(I63
F5.0
tp3304
a(I68
F5.0
tp3305
a(I78
F5.0
tp3306
a(I81
F5.0
tp3307
a(I94
F5.0
tp3308
a(I95
F5.0
tp3309
a(I99
F5.0
tp3310
a(I108
F5.0
tp3311
aa(lp3312
(I270
F4.0
tp3313
a(I300
F4.0
tp3314
a(I306
F4.0
tp3315
a(I257
F3.0
tp3316
a(I288
F3.0
tp3317
a(I327
F3.0
tp3318
a(I332
F3.0
tp3319
a(I357
F3.0
tp3320
a(I244
F2.0
tp3321
a(I265
F2.0
tp3322
aa(lp3323
(I0
F5.0
tp3324
a(I7
F5.0
tp3325
a(I8
F5.0
tp3326
a(I21
F5.0
tp3327
a(I22
F5.0
tp3328
a(I40
F5.0
tp3329
a(I41
F5.0
tp3330
a(I46
F5.0
tp3331
a(I49
F5.0
tp3332
a(I55
F5.0
tp3333
aa(lp3334
(I236
F5.0
tp3335
a(I297
F5.0
tp3336
a(I299
F5.0
tp3337
a(I312
F5.0
tp3338
a(I270
F4.0
tp3339
a(I273
F4.0
tp3340
a(I274
F4.0
tp3341
a(I277
F4.0
tp3342
a(I293
F4.0
tp3343
a(I321
F4.0
tp3344
aa(lp3345
(I0
F5.0
tp3346
a(I11
F5.0
tp3347
a(I44
F5.0
tp3348
a(I47
F5.0
tp3349
a(I49
F5.0
tp3350
a(I63
F5.0
tp3351
a(I126
F5.0
tp3352
a(I133
F5.0
tp3353
a(I168
F5.0
tp3354
a(I170
F5.0
tp3355
aa(lp3356
(I13
F5.0
tp3357
a(I18
F5.0
tp3358
a(I115
F5.0
tp3359
a(I149
F5.0
tp3360
a(I241
F5.0
tp3361
a(I268
F5.0
tp3362
a(I305
F5.0
tp3363
a(I1250
F5.0
tp3364
a(I12
F4.0
tp3365
a(I99
F4.0
tp3366
aa(lp3367
(I0
F5.0
tp3368
a(I49
F5.0
tp3369
a(I70
F5.0
tp3370
a(I80
F5.0
tp3371
a(I82
F5.0
tp3372
a(I88
F5.0
tp3373
a(I108
F5.0
tp3374
a(I113
F5.0
tp3375
a(I152
F5.0
tp3376
a(I153
F5.0
tp3377
aa(lp3378
(I3
F5.0
tp3379
a(I7
F5.0
tp3380
a(I10
F5.0
tp3381
a(I11
F5.0
tp3382
a(I22
F5.0
tp3383
a(I31
F5.0
tp3384
a(I49
F5.0
tp3385
a(I55
F5.0
tp3386
a(I80
F5.0
tp3387
a(I88
F5.0
tp3388
aa(lp3389
(I257
F5.0
tp3390
a(I325
F5.0
tp3391
a(I330
F5.0
tp3392
a(I1024
F5.0
tp3393
a(I241
F4.0
tp3394
a(I285
F4.0
tp3395
a(I318
F4.0
tp3396
a(I333
F4.0
tp3397
a(I878
F4.0
tp3398
a(I937
F4.0
tp3399
aa(lp3400
(I13
F5.0
tp3401
a(I49
F5.0
tp3402
a(I115
F5.0
tp3403
a(I250
F5.0
tp3404
a(I256
F5.0
tp3405
a(I274
F5.0
tp3406
a(I303
F5.0
tp3407
a(I844
F5.0
tp3408
a(I1021
F5.0
tp3409
a(I1141
F5.0
tp3410
aa(lp3411
(I14
F5.0
tp3412
a(I27
F5.0
tp3413
a(I49
F5.0
tp3414
a(I55
F5.0
tp3415
a(I63
F5.0
tp3416
a(I68
F5.0
tp3417
a(I76
F5.0
tp3418
a(I81
F5.0
tp3419
a(I82
F5.0
tp3420
a(I85
F5.0
tp3421
aa(lp3422
(I0
F5.0
tp3423
a(I7
F5.0
tp3424
a(I9
F5.0
tp3425
a(I13
F5.0
tp3426
a(I49
F5.0
tp3427
a(I51
F5.0
tp3428
a(I56
F5.0
tp3429
a(I69
F5.0
tp3430
a(I88
F5.0
tp3431
a(I95
F5.0
tp3432
aa(lp3433
(I49
F5.0
tp3434
a(I68
F5.0
tp3435
a(I72
F5.0
tp3436
a(I78
F5.0
tp3437
a(I88
F5.0
tp3438
a(I95
F5.0
tp3439
a(I99
F5.0
tp3440
a(I126
F5.0
tp3441
a(I131
F5.0
tp3442
a(I132
F5.0
tp3443
aa(lp3444
(I0
F5.0
tp3445
a(I10
F5.0
tp3446
a(I14
F5.0
tp3447
a(I27
F5.0
tp3448
a(I28
F5.0
tp3449
a(I37
F5.0
tp3450
a(I40
F5.0
tp3451
a(I41
F5.0
tp3452
a(I63
F5.0
tp3453
a(I65
F5.0
tp3454
aa(lp3455
(I11
F5.0
tp3456
a(I22
F5.0
tp3457
a(I24
F5.0
tp3458
a(I54
F5.0
tp3459
a(I55
F5.0
tp3460
a(I92
F5.0
tp3461
a(I99
F5.0
tp3462
a(I126
F5.0
tp3463
a(I136
F5.0
tp3464
a(I153
F5.0
tp3465
aa(lp3466
(I18
F5.0
tp3467
a(I96
F5.0
tp3468
a(I97
F5.0
tp3469
a(I189
F5.0
tp3470
a(I190
F5.0
tp3471
a(I212
F5.0
tp3472
a(I274
F5.0
tp3473
a(I282
F5.0
tp3474
a(I285
F5.0
tp3475
a(I317
F5.0
tp3476
aa(lp3477
(I349
F5.0
tp3478
a(I747
F5.0
tp3479
a(I244
F4.0
tp3480
a(I259
F4.0
tp3481
a(I263
F4.0
tp3482
a(I287
F4.0
tp3483
a(I298
F4.0
tp3484
a(I299
F4.0
tp3485
a(I312
F4.0
tp3486
a(I327
F4.0
tp3487
aa(lp3488
(I14
F5.0
tp3489
a(I24
F5.0
tp3490
a(I25
F5.0
tp3491
a(I68
F5.0
tp3492
a(I69
F5.0
tp3493
a(I99
F5.0
tp3494
a(I126
F5.0
tp3495
a(I133
F5.0
tp3496
a(I142
F5.0
tp3497
a(I156
F5.0
tp3498
aa(lp3499
(I312
F5.0
tp3500
a(I878
F5.0
tp3501
a(I266
F4.0
tp3502
a(I267
F4.0
tp3503
a(I300
F4.0
tp3504
a(I301
F4.0
tp3505
a(I305
F4.0
tp3506
a(I306
F4.0
tp3507
a(I331
F4.0
tp3508
a(I332
F4.0
tp3509
aa(lp3510
(I16
F5.0
tp3511
a(I21
F5.0
tp3512
a(I50
F5.0
tp3513
a(I55
F5.0
tp3514
a(I67
F5.0
tp3515
a(I91
F5.0
tp3516
a(I95
F5.0
tp3517
a(I96
F5.0
tp3518
a(I120
F5.0
tp3519
a(I155
F5.0
tp3520
aa(lp3521
(I60
F5.0
tp3522
a(I131
F5.0
tp3523
a(I132
F5.0
tp3524
a(I196
F5.0
tp3525
a(I204
F5.0
tp3526
a(I220
F5.0
tp3527
a(I431
F5.0
tp3528
a(I434
F5.0
tp3529
a(I482
F5.0
tp3530
a(I483
F5.0
tp3531
aa(lp3532
(I22
F5.0
tp3533
a(I31
F5.0
tp3534
a(I49
F5.0
tp3535
a(I63
F5.0
tp3536
a(I156
F5.0
tp3537
a(I178
F5.0
tp3538
a(I181
F5.0
tp3539
a(I184
F5.0
tp3540
a(I191
F5.0
tp3541
a(I193
F5.0
tp3542
aa(lp3543
(I10
F5.0
tp3544
a(I21
F5.0
tp3545
a(I22
F5.0
tp3546
a(I49
F5.0
tp3547
a(I55
F5.0
tp3548
a(I63
F5.0
tp3549
a(I126
F5.0
tp3550
a(I155
F5.0
tp3551
a(I171
F5.0
tp3552
a(I179
F5.0
tp3553
aa(lp3554
(I0
F5.0
tp3555
a(I8
F5.0
tp3556
a(I13
F5.0
tp3557
a(I49
F5.0
tp3558
a(I124
F5.0
tp3559
a(I247
F5.0
tp3560
a(I258
F5.0
tp3561
a(I259
F5.0
tp3562
a(I269
F5.0
tp3563
a(I272
F5.0
tp3564
aa(lp3565
(I22
F5.0
tp3566
a(I49
F5.0
tp3567
a(I98
F5.0
tp3568
a(I113
F5.0
tp3569
a(I126
F5.0
tp3570
a(I134
F5.0
tp3571
a(I136
F5.0
tp3572
a(I174
F5.0
tp3573
a(I176
F5.0
tp3574
a(I178
F5.0
tp3575
aa(lp3576
(I49
F5.0
tp3577
a(I97
F5.0
tp3578
a(I143
F5.0
tp3579
a(I172
F5.0
tp3580
a(I177
F5.0
tp3581
a(I182
F5.0
tp3582
a(I184
F5.0
tp3583
a(I198
F5.0
tp3584
a(I225
F5.0
tp3585
a(I317
F5.0
tp3586
aa(lp3587
(I8
F5.0
tp3588
a(I131
F5.0
tp3589
a(I187
F5.0
tp3590
a(I191
F5.0
tp3591
a(I200
F5.0
tp3592
a(I233
F5.0
tp3593
a(I304
F5.0
tp3594
a(I317
F5.0
tp3595
a(I633
F5.0
tp3596
a(I864
F5.0
tp3597
aa(lp3598
(I11
F5.0
tp3599
a(I21
F5.0
tp3600
a(I27
F5.0
tp3601
a(I88
F5.0
tp3602
a(I99
F5.0
tp3603
a(I126
F5.0
tp3604
a(I131
F5.0
tp3605
a(I132
F5.0
tp3606
a(I156
F5.0
tp3607
a(I175
F5.0
tp3608
aa(lp3609
(I123
F5.0
tp3610
a(I136
F5.0
tp3611
a(I271
F5.0
tp3612
a(I301
F5.0
tp3613
a(I11
F4.0
tp3614
a(I49
F4.0
tp3615
a(I78
F4.0
tp3616
a(I97
F4.0
tp3617
a(I99
F4.0
tp3618
a(I126
F4.0
tp3619
aa(lp3620
(I0
F5.0
tp3621
a(I7
F5.0
tp3622
a(I14
F5.0
tp3623
a(I20
F5.0
tp3624
a(I21
F5.0
tp3625
a(I24
F5.0
tp3626
a(I27
F5.0
tp3627
a(I30
F5.0
tp3628
a(I43
F5.0
tp3629
a(I46
F5.0
tp3630
aa(lp3631
(I46
F5.0
tp3632
a(I58
F5.0
tp3633
a(I68
F5.0
tp3634
a(I80
F5.0
tp3635
a(I159
F5.0
tp3636
a(I179
F5.0
tp3637
a(I267
F5.0
tp3638
a(I268
F5.0
tp3639
a(I301
F5.0
tp3640
a(I303
F5.0
tp3641
aa(lp3642
(I4
F5.0
tp3643
a(I7
F5.0
tp3644
a(I10
F5.0
tp3645
a(I11
F5.0
tp3646
a(I21
F5.0
tp3647
a(I40
F5.0
tp3648
a(I49
F5.0
tp3649
a(I55
F5.0
tp3650
a(I63
F5.0
tp3651
a(I78
F5.0
tp3652
aa(lp3653
(I65
F5.0
tp3654
a(I87
F5.0
tp3655
a(I173
F5.0
tp3656
a(I314
F5.0
tp3657
a(I315
F5.0
tp3658
a(I738
F5.0
tp3659
a(I97
F4.0
tp3660
a(I99
F4.0
tp3661
a(I126
F4.0
tp3662
a(I152
F4.0
tp3663
aa(lp3664
(I6
F5.0
tp3665
a(I11
F5.0
tp3666
a(I49
F5.0
tp3667
a(I58
F5.0
tp3668
a(I99
F5.0
tp3669
a(I114
F5.0
tp3670
a(I123
F5.0
tp3671
a(I133
F5.0
tp3672
a(I167
F5.0
tp3673
a(I207
F5.0
tp3674
aa(lp3675
(I299
F5.0
tp3676
a(I306
F5.0
tp3677
a(I339
F5.0
tp3678
a(I346
F5.0
tp3679
a(I901
F5.0
tp3680
a(I244
F4.0
tp3681
a(I268
F4.0
tp3682
a(I270
F4.0
tp3683
a(I287
F4.0
tp3684
a(I304
F4.0
tp3685
aa(lp3686
(I25
F5.0
tp3687
a(I41
F5.0
tp3688
a(I69
F5.0
tp3689
a(I89
F5.0
tp3690
a(I121
F5.0
tp3691
a(I152
F5.0
tp3692
a(I153
F5.0
tp3693
a(I167
F5.0
tp3694
a(I172
F5.0
tp3695
a(I203
F5.0
tp3696
aa(lp3697
(I14
F5.0
tp3698
a(I49
F5.0
tp3699
a(I120
F5.0
tp3700
a(I134
F5.0
tp3701
a(I150
F5.0
tp3702
a(I221
F5.0
tp3703
a(I226
F5.0
tp3704
a(I227
F5.0
tp3705
a(I229
F5.0
tp3706
a(I391
F5.0
tp3707
aa(lp3708
(I51
F5.0
tp3709
a(I133
F5.0
tp3710
a(I134
F5.0
tp3711
a(I168
F5.0
tp3712
a(I169
F5.0
tp3713
a(I196
F5.0
tp3714
a(I212
F5.0
tp3715
a(I274
F5.0
tp3716
a(I381
F5.0
tp3717
a(I407
F5.0
tp3718
aa(lp3719
(I0
F5.0
tp3720
a(I8
F5.0
tp3721
a(I11
F5.0
tp3722
a(I21
F5.0
tp3723
a(I22
F5.0
tp3724
a(I31
F5.0
tp3725
a(I44
F5.0
tp3726
a(I55
F5.0
tp3727
a(I63
F5.0
tp3728
a(I80
F5.0
tp3729
aa(lp3730
(I0
F5.0
tp3731
a(I14
F5.0
tp3732
a(I65
F5.0
tp3733
a(I70
F5.0
tp3734
a(I87
F5.0
tp3735
a(I94
F5.0
tp3736
a(I142
F5.0
tp3737
a(I172
F5.0
tp3738
a(I198
F5.0
tp3739
a(I214
F5.0
tp3740
aa(lp3741
(I291
F5.0
tp3742
a(I298
F5.0
tp3743
a(I329
F5.0
tp3744
a(I879
F5.0
tp3745
a(I880
F5.0
tp3746
a(I886
F5.0
tp3747
a(I1024
F5.0
tp3748
a(I287
F4.0
tp3749
a(I334
F4.0
tp3750
a(I871
F4.0
tp3751
aa(lp3752
(I8
F5.0
tp3753
a(I10
F5.0
tp3754
a(I11
F5.0
tp3755
a(I13
F5.0
tp3756
a(I22
F5.0
tp3757
a(I31
F5.0
tp3758
a(I46
F5.0
tp3759
a(I55
F5.0
tp3760
a(I57
F5.0
tp3761
a(I99
F5.0
tp3762
aa(lp3763
(I0
F5.0
tp3764
a(I3
F5.0
tp3765
a(I6
F5.0
tp3766
a(I7
F5.0
tp3767
a(I8
F5.0
tp3768
a(I10
F5.0
tp3769
a(I11
F5.0
tp3770
a(I12
F5.0
tp3771
a(I19
F5.0
tp3772
a(I22
F5.0
tp3773
aa(lp3774
(I7
F5.0
tp3775
a(I8
F5.0
tp3776
a(I11
F5.0
tp3777
a(I13
F5.0
tp3778
a(I44
F5.0
tp3779
a(I49
F5.0
tp3780
a(I63
F5.0
tp3781
a(I88
F5.0
tp3782
a(I99
F5.0
tp3783
a(I118
F5.0
tp3784
aa(lp3785
(I11
F5.0
tp3786
a(I47
F5.0
tp3787
a(I49
F5.0
tp3788
a(I50
F5.0
tp3789
a(I55
F5.0
tp3790
a(I63
F5.0
tp3791
a(I69
F5.0
tp3792
a(I86
F5.0
tp3793
a(I97
F5.0
tp3794
a(I99
F5.0
tp3795
aa(lp3796
(I1
F5.0
tp3797
a(I11
F5.0
tp3798
a(I21
F5.0
tp3799
a(I32
F5.0
tp3800
a(I49
F5.0
tp3801
a(I54
F5.0
tp3802
a(I55
F5.0
tp3803
a(I78
F5.0
tp3804
a(I95
F5.0
tp3805
a(I126
F5.0
tp3806
aa(lp3807
(I10
F5.0
tp3808
a(I21
F5.0
tp3809
a(I30
F5.0
tp3810
a(I49
F5.0
tp3811
a(I54
F5.0
tp3812
a(I55
F5.0
tp3813
a(I67
F5.0
tp3814
a(I68
F5.0
tp3815
a(I75
F5.0
tp3816
a(I76
F5.0
tp3817
aa(lp3818
(I110
F5.0
tp3819
a(I120
F5.0
tp3820
a(I122
F5.0
tp3821
a(I125
F5.0
tp3822
a(I146
F5.0
tp3823
a(I287
F5.0
tp3824
a(I312
F5.0
tp3825
a(I322
F5.0
tp3826
a(I927
F5.0
tp3827
a(I1060
F5.0
tp3828
aa(lp3829
(I9
F5.0
tp3830
a(I19
F5.0
tp3831
a(I275
F5.0
tp3832
a(I283
F5.0
tp3833
a(I284
F5.0
tp3834
a(I8
F4.0
tp3835
a(I14
F4.0
tp3836
a(I99
F4.0
tp3837
a(I124
F4.0
tp3838
a(I410
F4.0
tp3839
aa(lp3840
(I22
F5.0
tp3841
a(I49
F5.0
tp3842
a(I126
F5.0
tp3843
a(I131
F5.0
tp3844
a(I132
F5.0
tp3845
a(I135
F5.0
tp3846
a(I167
F5.0
tp3847
a(I171
F5.0
tp3848
a(I173
F5.0
tp3849
a(I178
F5.0
tp3850
aa(lp3851
(I257
F5.0
tp3852
a(I285
F5.0
tp3853
a(I288
F5.0
tp3854
a(I299
F5.0
tp3855
a(I309
F5.0
tp3856
a(I311
F5.0
tp3857
a(I312
F5.0
tp3858
a(I321
F5.0
tp3859
a(I322
F5.0
tp3860
a(I325
F5.0
tp3861
aa(lp3862
(I38
F5.0
tp3863
a(I49
F5.0
tp3864
a(I55
F5.0
tp3865
a(I88
F5.0
tp3866
a(I97
F5.0
tp3867
a(I128
F5.0
tp3868
a(I143
F5.0
tp3869
a(I171
F5.0
tp3870
a(I173
F5.0
tp3871
a(I175
F5.0
tp3872
aa(lp3873
(I257
F5.0
tp3874
a(I271
F5.0
tp3875
a(I285
F5.0
tp3876
a(I312
F5.0
tp3877
a(I315
F5.0
tp3878
a(I331
F5.0
tp3879
a(I244
F4.0
tp3880
a(I314
F4.0
tp3881
a(I330
F4.0
tp3882
a(I332
F4.0
tp3883
aa(lp3884
(I7
F5.0
tp3885
a(I9
F5.0
tp3886
a(I18
F5.0
tp3887
a(I19
F5.0
tp3888
a(I44
F5.0
tp3889
a(I51
F5.0
tp3890
a(I56
F5.0
tp3891
a(I58
F5.0
tp3892
a(I59
F5.0
tp3893
a(I60
F5.0
tp3894
aa(lp3895
(I285
F5.0
tp3896
a(I287
F5.0
tp3897
a(I318
F5.0
tp3898
a(I1174
F5.0
tp3899
a(I241
F4.0
tp3900
a(I259
F4.0
tp3901
a(I263
F4.0
tp3902
a(I299
F4.0
tp3903
a(I305
F4.0
tp3904
a(I306
F4.0
tp3905
aa(lp3906
(I257
F5.0
tp3907
a(I271
F5.0
tp3908
a(I312
F5.0
tp3909
a(I332
F5.0
tp3910
a(I688
F5.0
tp3911
a(I287
F4.0
tp3912
a(I306
F4.0
tp3913
a(I314
F4.0
tp3914
a(I315
F4.0
tp3915
a(I325
F4.0
tp3916
aa(lp3917
(I0
F5.0
tp3918
a(I9
F5.0
tp3919
a(I110
F5.0
tp3920
a(I116
F5.0
tp3921
a(I117
F5.0
tp3922
a(I120
F5.0
tp3923
a(I124
F5.0
tp3924
a(I125
F5.0
tp3925
a(I146
F5.0
tp3926
a(I150
F5.0
tp3927
aa(lp3928
(I7
F5.0
tp3929
a(I113
F5.0
tp3930
a(I131
F5.0
tp3931
a(I212
F5.0
tp3932
a(I220
F5.0
tp3933
a(I317
F5.0
tp3934
a(I511
F5.0
tp3935
a(I581
F5.0
tp3936
a(I862
F5.0
tp3937
a(I1005
F5.0
tp3938
aa(lp3939
(I6
F5.0
tp3940
a(I49
F5.0
tp3941
a(I180
F5.0
tp3942
a(I285
F5.0
tp3943
a(I297
F5.0
tp3944
a(I312
F5.0
tp3945
a(I407
F5.0
tp3946
a(I0
F4.0
tp3947
a(I116
F4.0
tp3948
a(I120
F4.0
tp3949
aa(lp3950
(I9
F5.0
tp3951
a(I13
F5.0
tp3952
a(I22
F5.0
tp3953
a(I63
F5.0
tp3954
a(I99
F5.0
tp3955
a(I123
F5.0
tp3956
a(I126
F5.0
tp3957
a(I133
F5.0
tp3958
a(I136
F5.0
tp3959
a(I165
F5.0
tp3960
aa(lp3961
(I22
F5.0
tp3962
a(I49
F5.0
tp3963
a(I97
F5.0
tp3964
a(I99
F5.0
tp3965
a(I164
F5.0
tp3966
a(I169
F5.0
tp3967
a(I172
F5.0
tp3968
a(I177
F5.0
tp3969
a(I184
F5.0
tp3970
a(I189
F5.0
tp3971
aa(lp3972
(I299
F5.0
tp3973
a(I301
F5.0
tp3974
a(I311
F5.0
tp3975
a(I331
F5.0
tp3976
a(I332
F5.0
tp3977
a(I346
F5.0
tp3978
a(I349
F5.0
tp3979
a(I688
F5.0
tp3980
a(I878
F5.0
tp3981
a(I244
F4.0
tp3982
aa(lp3983
(I3
F5.0
tp3984
a(I7
F5.0
tp3985
a(I10
F5.0
tp3986
a(I11
F5.0
tp3987
a(I46
F5.0
tp3988
a(I49
F5.0
tp3989
a(I54
F5.0
tp3990
a(I55
F5.0
tp3991
a(I89
F5.0
tp3992
a(I95
F5.0
tp3993
aa(lp3994
(I285
F5.0
tp3995
a(I293
F5.0
tp3996
a(I1047
F5.0
tp3997
a(I268
F4.0
tp3998
a(I287
F4.0
tp3999
a(I301
F4.0
tp4000
a(I324
F4.0
tp4001
a(I677
F4.0
tp4002
a(I689
F4.0
tp4003
a(I947
F4.0
tp4004
aa(lp4005
(I99
F5.0
tp4006
a(I149
F5.0
tp4007
a(I267
F5.0
tp4008
a(I287
F5.0
tp4009
a(I300
F5.0
tp4010
a(I320
F5.0
tp4011
a(I339
F5.0
tp4012
a(I812
F5.0
tp4013
a(I1136
F5.0
tp4014
a(I0
F4.0
tp4015
aa(lp4016
(I16
F5.0
tp4017
a(I52
F5.0
tp4018
a(I55
F5.0
tp4019
a(I97
F5.0
tp4020
a(I163
F5.0
tp4021
a(I184
F5.0
tp4022
a(I199
F5.0
tp4023
a(I200
F5.0
tp4024
a(I216
F5.0
tp4025
a(I218
F5.0
tp4026
aa(lp4027
(I6
F5.0
tp4028
a(I16
F5.0
tp4029
a(I49
F5.0
tp4030
a(I55
F5.0
tp4031
a(I97
F5.0
tp4032
a(I99
F5.0
tp4033
a(I175
F5.0
tp4034
a(I178
F5.0
tp4035
a(I182
F5.0
tp4036
a(I183
F5.0
tp4037
aa(lp4038
(I16
F5.0
tp4039
a(I182
F5.0
tp4040
a(I183
F5.0
tp4041
a(I200
F5.0
tp4042
a(I216
F5.0
tp4043
a(I312
F5.0
tp4044
a(I319
F5.0
tp4045
a(I6
F4.0
tp4046
a(I10
F4.0
tp4047
a(I49
F4.0
tp4048
aa(lp4049
(I49
F5.0
tp4050
a(I113
F5.0
tp4051
a(I171
F5.0
tp4052
a(I180
F5.0
tp4053
a(I195
F5.0
tp4054
a(I267
F5.0
tp4055
a(I270
F5.0
tp4056
a(I315
F5.0
tp4057
a(I918
F5.0
tp4058
a(I165
F4.0
tp4059
aa(lp4060
(I56
F5.0
tp4061
a(I208
F5.0
tp4062
a(I256
F5.0
tp4063
a(I264
F5.0
tp4064
a(I268
F5.0
tp4065
a(I301
F5.0
tp4066
a(I426
F5.0
tp4067
a(I442
F5.0
tp4068
a(I492
F5.0
tp4069
a(I602
F5.0
tp4070
aa(lp4071
(I21
F5.0
tp4072
a(I30
F5.0
tp4073
a(I68
F5.0
tp4074
a(I72
F5.0
tp4075
a(I76
F5.0
tp4076
a(I78
F5.0
tp4077
a(I96
F5.0
tp4078
a(I97
F5.0
tp4079
a(I182
F5.0
tp4080
a(I185
F5.0
tp4081
aa(lp4082
(I22
F5.0
tp4083
a(I52
F5.0
tp4084
a(I76
F5.0
tp4085
a(I78
F5.0
tp4086
a(I97
F5.0
tp4087
a(I147
F5.0
tp4088
a(I158
F5.0
tp4089
a(I182
F5.0
tp4090
a(I184
F5.0
tp4091
a(I199
F5.0
tp4092
aa(lp4093
(I11
F5.0
tp4094
a(I21
F5.0
tp4095
a(I47
F5.0
tp4096
a(I49
F5.0
tp4097
a(I67
F5.0
tp4098
a(I70
F5.0
tp4099
a(I82
F5.0
tp4100
a(I88
F5.0
tp4101
a(I94
F5.0
tp4102
a(I98
F5.0
tp4103
aa(lp4104
(I24
F5.0
tp4105
a(I27
F5.0
tp4106
a(I30
F5.0
tp4107
a(I47
F5.0
tp4108
a(I55
F5.0
tp4109
a(I63
F5.0
tp4110
a(I68
F5.0
tp4111
a(I70
F5.0
tp4112
a(I76
F5.0
tp4113
a(I86
F5.0
tp4114
aa(lp4115
(I182
F5.0
tp4116
a(I184
F5.0
tp4117
a(I233
F5.0
tp4118
a(I301
F5.0
tp4119
a(I4
F4.0
tp4120
a(I76
F4.0
tp4121
a(I175
F4.0
tp4122
a(I232
F4.0
tp4123
a(I287
F4.0
tp4124
a(I299
F4.0
tp4125
aa(lp4126
(I97
F5.0
tp4127
a(I197
F5.0
tp4128
a(I268
F5.0
tp4129
a(I274
F5.0
tp4130
a(I10
F4.0
tp4131
a(I13
F4.0
tp4132
a(I99
F4.0
tp4133
a(I110
F4.0
tp4134
a(I153
F4.0
tp4135
a(I180
F4.0
tp4136
aa(lp4137
(I97
F5.0
tp4138
a(I153
F5.0
tp4139
a(I167
F5.0
tp4140
a(I172
F5.0
tp4141
a(I193
F5.0
tp4142
a(I199
F5.0
tp4143
a(I233
F5.0
tp4144
a(I271
F5.0
tp4145
a(I287
F5.0
tp4146
a(I293
F5.0
tp4147
aa(lp4148
(I8
F5.0
tp4149
a(I11
F5.0
tp4150
a(I13
F5.0
tp4151
a(I21
F5.0
tp4152
a(I47
F5.0
tp4153
a(I51
F5.0
tp4154
a(I96
F5.0
tp4155
a(I97
F5.0
tp4156
a(I132
F5.0
tp4157
a(I172
F5.0
tp4158
aa(lp4159
(I3
F5.0
tp4160
a(I6
F5.0
tp4161
a(I7
F5.0
tp4162
a(I11
F5.0
tp4163
a(I46
F5.0
tp4164
a(I55
F5.0
tp4165
a(I63
F5.0
tp4166
a(I78
F5.0
tp4167
a(I93
F5.0
tp4168
a(I95
F5.0
tp4169
aa(lp4170
(I11
F5.0
tp4171
a(I88
F5.0
tp4172
a(I189
F5.0
tp4173
a(I285
F5.0
tp4174
a(I301
F5.0
tp4175
a(I529
F5.0
tp4176
a(I0
F4.0
tp4177
a(I21
F4.0
tp4178
a(I27
F4.0
tp4179
a(I49
F4.0
tp4180
aa(lp4181
(I0
F5.0
tp4182
a(I13
F5.0
tp4183
a(I19
F5.0
tp4184
a(I49
F5.0
tp4185
a(I88
F5.0
tp4186
a(I95
F5.0
tp4187
a(I98
F5.0
tp4188
a(I123
F5.0
tp4189
a(I131
F5.0
tp4190
a(I132
F5.0
tp4191
aa(lp4192
(I22
F5.0
tp4193
a(I55
F5.0
tp4194
a(I58
F5.0
tp4195
a(I179
F5.0
tp4196
a(I234
F5.0
tp4197
a(I333
F5.0
tp4198
a(I473
F5.0
tp4199
a(I480
F5.0
tp4200
a(I481
F5.0
tp4201
a(I1228
F5.0
tp4202
aa(lp4203
(I8
F5.0
tp4204
a(I13
F5.0
tp4205
a(I85
F5.0
tp4206
a(I131
F5.0
tp4207
a(I133
F5.0
tp4208
a(I134
F5.0
tp4209
a(I136
F5.0
tp4210
a(I179
F5.0
tp4211
a(I181
F5.0
tp4212
a(I184
F5.0
tp4213
aa(lp4214
(I271
F5.0
tp4215
a(I288
F5.0
tp4216
a(I301
F5.0
tp4217
a(I312
F5.0
tp4218
a(I315
F5.0
tp4219
a(I257
F4.0
tp4220
a(I270
F4.0
tp4221
a(I285
F4.0
tp4222
a(I299
F4.0
tp4223
a(I326
F4.0
tp4224
aa(lp4225
(I7
F5.0
tp4226
a(I17
F5.0
tp4227
a(I22
F5.0
tp4228
a(I29
F5.0
tp4229
a(I31
F5.0
tp4230
a(I45
F5.0
tp4231
a(I47
F5.0
tp4232
a(I55
F5.0
tp4233
a(I113
F5.0
tp4234
a(I127
F5.0
tp4235
aa(lp4236
(I116
F5.0
tp4237
a(I126
F5.0
tp4238
a(I514
F5.0
tp4239
a(I839
F5.0
tp4240
a(I23
F4.0
tp4241
a(I49
F4.0
tp4242
a(I221
F4.0
tp4243
a(I322
F4.0
tp4244
a(I404
F4.0
tp4245
a(I684
F4.0
tp4246
aa(lp4247
(I6
F5.0
tp4248
a(I11
F5.0
tp4249
a(I21
F5.0
tp4250
a(I23
F5.0
tp4251
a(I27
F5.0
tp4252
a(I31
F5.0
tp4253
a(I49
F5.0
tp4254
a(I51
F5.0
tp4255
a(I55
F5.0
tp4256
a(I88
F5.0
tp4257
aa(lp4258
(I0
F5.0
tp4259
a(I52
F5.0
tp4260
a(I97
F5.0
tp4261
a(I116
F5.0
tp4262
a(I199
F5.0
tp4263
a(I217
F5.0
tp4264
a(I218
F5.0
tp4265
a(I236
F5.0
tp4266
a(I257
F5.0
tp4267
a(I265
F5.0
tp4268
aa(lp4269
(I49
F5.0
tp4270
a(I55
F5.0
tp4271
a(I58
F5.0
tp4272
a(I68
F5.0
tp4273
a(I86
F5.0
tp4274
a(I98
F5.0
tp4275
a(I99
F5.0
tp4276
a(I126
F5.0
tp4277
a(I131
F5.0
tp4278
a(I132
F5.0
tp4279
aa(lp4280
(I0
F5.0
tp4281
a(I8
F5.0
tp4282
a(I99
F5.0
tp4283
a(I125
F5.0
tp4284
a(I257
F5.0
tp4285
a(I274
F5.0
tp4286
a(I299
F5.0
tp4287
a(I301
F5.0
tp4288
a(I303
F5.0
tp4289
a(I318
F5.0
tp4290
aa(lp4291
(I8
F5.0
tp4292
a(I11
F5.0
tp4293
a(I25
F5.0
tp4294
a(I55
F5.0
tp4295
a(I58
F5.0
tp4296
a(I59
F5.0
tp4297
a(I60
F5.0
tp4298
a(I63
F5.0
tp4299
a(I126
F5.0
tp4300
a(I173
F5.0
tp4301
aa(lp4302
(I7
F5.0
tp4303
a(I22
F5.0
tp4304
a(I49
F5.0
tp4305
a(I97
F5.0
tp4306
a(I98
F5.0
tp4307
a(I126
F5.0
tp4308
a(I133
F5.0
tp4309
a(I164
F5.0
tp4310
a(I165
F5.0
tp4311
a(I169
F5.0
tp4312
aa(lp4313
(I11
F5.0
tp4314
a(I49
F5.0
tp4315
a(I135
F5.0
tp4316
a(I142
F5.0
tp4317
a(I146
F5.0
tp4318
a(I171
F5.0
tp4319
a(I172
F5.0
tp4320
a(I269
F5.0
tp4321
a(I314
F5.0
tp4322
a(I315
F5.0
tp4323
aa(lp4324
(I6
F5.0
tp4325
a(I21
F5.0
tp4326
a(I23
F5.0
tp4327
a(I49
F5.0
tp4328
a(I55
F5.0
tp4329
a(I66
F5.0
tp4330
a(I67
F5.0
tp4331
a(I68
F5.0
tp4332
a(I78
F5.0
tp4333
a(I88
F5.0
tp4334
aa(lp4335
(I0
F5.0
tp4336
a(I49
F5.0
tp4337
a(I63
F5.0
tp4338
a(I88
F5.0
tp4339
a(I96
F5.0
tp4340
a(I97
F5.0
tp4341
a(I126
F5.0
tp4342
a(I153
F5.0
tp4343
a(I162
F5.0
tp4344
a(I171
F5.0
tp4345
aa(lp4346
(I120
F5.0
tp4347
a(I221
F5.0
tp4348
a(I471
F5.0
tp4349
a(I0
F4.0
tp4350
a(I8
F4.0
tp4351
a(I105
F4.0
tp4352
a(I116
F4.0
tp4353
a(I117
F4.0
tp4354
a(I147
F4.0
tp4355
a(I236
F4.0
tp4356
aa(lp4357
(I6
F5.0
tp4358
a(I22
F5.0
tp4359
a(I49
F5.0
tp4360
a(I55
F5.0
tp4361
a(I57
F5.0
tp4362
a(I99
F5.0
tp4363
a(I126
F5.0
tp4364
a(I133
F5.0
tp4365
a(I134
F5.0
tp4366
a(I155
F5.0
tp4367
aa(lp4368
(I0
F5.0
tp4369
a(I14
F5.0
tp4370
a(I27
F5.0
tp4371
a(I49
F5.0
tp4372
a(I68
F5.0
tp4373
a(I70
F5.0
tp4374
a(I81
F5.0
tp4375
a(I94
F5.0
tp4376
a(I123
F5.0
tp4377
a(I131
F5.0
tp4378
aa(lp4379
(I14
F5.0
tp4380
a(I93
F5.0
tp4381
a(I142
F5.0
tp4382
a(I146
F5.0
tp4383
a(I195
F5.0
tp4384
a(I317
F5.0
tp4385
a(I474
F5.0
tp4386
a(I587
F5.0
tp4387
a(I745
F5.0
tp4388
a(I746
F5.0
tp4389
aa(lp4390
(I257
F5.0
tp4391
a(I312
F5.0
tp4392
a(I268
F4.0
tp4393
a(I285
F4.0
tp4394
a(I287
F4.0
tp4395
a(I299
F4.0
tp4396
a(I300
F4.0
tp4397
a(I303
F4.0
tp4398
a(I320
F4.0
tp4399
a(I322
F4.0
tp4400
aa(lp4401
(I143
F5.0
tp4402
a(I161
F5.0
tp4403
a(I195
F5.0
tp4404
a(I203
F5.0
tp4405
a(I315
F5.0
tp4406
a(I434
F5.0
tp4407
a(I527
F5.0
tp4408
a(I552
F5.0
tp4409
a(I565
F5.0
tp4410
a(I734
F5.0
tp4411
aa(lp4412
(I0
F5.0
tp4413
a(I14
F5.0
tp4414
a(I47
F5.0
tp4415
a(I94
F5.0
tp4416
a(I95
F5.0
tp4417
a(I99
F5.0
tp4418
a(I126
F5.0
tp4419
a(I150
F5.0
tp4420
a(I167
F5.0
tp4421
a(I181
F5.0
tp4422
aa(lp4423
(I6
F5.0
tp4424
a(I49
F5.0
tp4425
a(I99
F5.0
tp4426
a(I117
F5.0
tp4427
a(I120
F5.0
tp4428
a(I146
F5.0
tp4429
a(I147
F5.0
tp4430
a(I221
F5.0
tp4431
a(I234
F5.0
tp4432
a(I236
F5.0
tp4433
aa(lp4434
(I21
F5.0
tp4435
a(I258
F5.0
tp4436
a(I312
F5.0
tp4437
a(I689
F5.0
tp4438
a(I65
F4.0
tp4439
a(I257
F4.0
tp4440
a(I268
F4.0
tp4441
a(I269
F4.0
tp4442
a(I271
F4.0
tp4443
a(I293
F4.0
tp4444
aa(lp4445
(I11
F5.0
tp4446
a(I21
F5.0
tp4447
a(I22
F5.0
tp4448
a(I37
F5.0
tp4449
a(I46
F5.0
tp4450
a(I49
F5.0
tp4451
a(I63
F5.0
tp4452
a(I65
F5.0
tp4453
a(I66
F5.0
tp4454
a(I72
F5.0
tp4455
aa(lp4456
(I8
F5.0
tp4457
a(I31
F5.0
tp4458
a(I41
F5.0
tp4459
a(I47
F5.0
tp4460
a(I49
F5.0
tp4461
a(I51
F5.0
tp4462
a(I55
F5.0
tp4463
a(I95
F5.0
tp4464
a(I96
F5.0
tp4465
a(I98
F5.0
tp4466
aa(lp4467
(I7
F5.0
tp4468
a(I55
F5.0
tp4469
a(I97
F5.0
tp4470
a(I99
F5.0
tp4471
a(I133
F5.0
tp4472
a(I153
F5.0
tp4473
a(I167
F5.0
tp4474
a(I168
F5.0
tp4475
a(I172
F5.0
tp4476
a(I173
F5.0
tp4477
aa(lp4478
(I269
F5.0
tp4479
a(I293
F5.0
tp4480
a(I301
F5.0
tp4481
a(I314
F5.0
tp4482
a(I318
F5.0
tp4483
a(I323
F5.0
tp4484
a(I326
F5.0
tp4485
a(I747
F5.0
tp4486
a(I241
F4.0
tp4487
a(I271
F4.0
tp4488
aa(lp4489
(I13
F5.0
tp4490
a(I49
F5.0
tp4491
a(I58
F5.0
tp4492
a(I59
F5.0
tp4493
a(I88
F5.0
tp4494
a(I96
F5.0
tp4495
a(I97
F5.0
tp4496
a(I99
F5.0
tp4497
a(I133
F5.0
tp4498
a(I134
F5.0
tp4499
aa(lp4500
(I268
F5.0
tp4501
a(I312
F5.0
tp4502
a(I271
F4.0
tp4503
a(I285
F4.0
tp4504
a(I314
F4.0
tp4505
a(I315
F4.0
tp4506
a(I689
F4.0
tp4507
a(I872
F4.0
tp4508
a(I904
F4.0
tp4509
a(I299
F3.0
tp4510
aa(lp4511
(I49
F5.0
tp4512
a(I167
F5.0
tp4513
a(I171
F5.0
tp4514
a(I180
F5.0
tp4515
a(I185
F5.0
tp4516
a(I193
F5.0
tp4517
a(I209
F5.0
tp4518
a(I264
F5.0
tp4519
a(I602
F5.0
tp4520
a(I708
F5.0
tp4521
aa(lp4522
(I6
F5.0
tp4523
a(I55
F5.0
tp4524
a(I95
F5.0
tp4525
a(I171
F5.0
tp4526
a(I172
F5.0
tp4527
a(I173
F5.0
tp4528
a(I185
F5.0
tp4529
a(I275
F5.0
tp4530
a(I317
F5.0
tp4531
a(I633
F5.0
tp4532
aa(lp4533
(I13
F5.0
tp4534
a(I49
F5.0
tp4535
a(I123
F5.0
tp4536
a(I180
F5.0
tp4537
a(I274
F5.0
tp4538
a(I282
F5.0
tp4539
a(I285
F5.0
tp4540
a(I296
F5.0
tp4541
a(I302
F5.0
tp4542
a(I514
F5.0
tp4543
aa(lp4544
(I10
F5.0
tp4545
a(I99
F5.0
tp4546
a(I257
F5.0
tp4547
a(I269
F5.0
tp4548
a(I271
F5.0
tp4549
a(I287
F5.0
tp4550
a(I301
F5.0
tp4551
a(I345
F5.0
tp4552
a(I432
F5.0
tp4553
a(I299
F4.0
tp4554
aa(lp4555
(I55
F5.0
tp4556
a(I135
F5.0
tp4557
a(I173
F5.0
tp4558
a(I179
F5.0
tp4559
a(I194
F5.0
tp4560
a(I327
F5.0
tp4561
a(I479
F5.0
tp4562
a(I482
F5.0
tp4563
a(I530
F5.0
tp4564
a(I747
F5.0
tp4565
aa(lp4566
(I0
F5.0
tp4567
a(I7
F5.0
tp4568
a(I8
F5.0
tp4569
a(I11
F5.0
tp4570
a(I12
F5.0
tp4571
a(I21
F5.0
tp4572
a(I23
F5.0
tp4573
a(I27
F5.0
tp4574
a(I30
F5.0
tp4575
a(I49
F5.0
tp4576
aa(lp4577
(I10
F5.0
tp4578
a(I14
F5.0
tp4579
a(I54
F5.0
tp4580
a(I55
F5.0
tp4581
a(I63
F5.0
tp4582
a(I80
F5.0
tp4583
a(I82
F5.0
tp4584
a(I88
F5.0
tp4585
a(I94
F5.0
tp4586
a(I97
F5.0
tp4587
aa(lp4588
(I257
F5.0
tp4589
a(I268
F5.0
tp4590
a(I287
F5.0
tp4591
a(I332
F5.0
tp4592
a(I898
F5.0
tp4593
a(I303
F4.0
tp4594
a(I894
F4.0
tp4595
a(I299
F3.0
tp4596
a(I312
F3.0
tp4597
a(I330
F3.0
tp4598
aa(lp4599
(I13
F5.0
tp4600
a(I49
F5.0
tp4601
a(I99
F5.0
tp4602
a(I133
F5.0
tp4603
a(I172
F5.0
tp4604
a(I173
F5.0
tp4605
a(I196
F5.0
tp4606
a(I274
F5.0
tp4607
a(I305
F5.0
tp4608
a(I477
F5.0
tp4609
aa(lp4610
(I13
F5.0
tp4611
a(I85
F5.0
tp4612
a(I99
F5.0
tp4613
a(I123
F5.0
tp4614
a(I126
F5.0
tp4615
a(I178
F5.0
tp4616
a(I189
F5.0
tp4617
a(I250
F5.0
tp4618
a(I274
F5.0
tp4619
a(I282
F5.0
tp4620
aa(lp4621
(I11
F5.0
tp4622
a(I49
F5.0
tp4623
a(I55
F5.0
tp4624
a(I88
F5.0
tp4625
a(I97
F5.0
tp4626
a(I116
F5.0
tp4627
a(I128
F5.0
tp4628
a(I143
F5.0
tp4629
a(I155
F5.0
tp4630
a(I171
F5.0
tp4631
aa(lp4632
(I97
F5.0
tp4633
a(I136
F5.0
tp4634
a(I199
F5.0
tp4635
a(I249
F5.0
tp4636
a(I272
F5.0
tp4637
a(I274
F5.0
tp4638
a(I275
F5.0
tp4639
a(I285
F5.0
tp4640
a(I323
F5.0
tp4641
a(I409
F5.0
tp4642
aa(lp4643
(I8
F5.0
tp4644
a(I99
F5.0
tp4645
a(I257
F5.0
tp4646
a(I271
F5.0
tp4647
a(I275
F5.0
tp4648
a(I301
F5.0
tp4649
a(I590
F5.0
tp4650
a(I749
F5.0
tp4651
a(I886
F5.0
tp4652
a(I9
F4.0
tp4653
aa(lp4654
(I8
F5.0
tp4655
a(I99
F5.0
tp4656
a(I274
F5.0
tp4657
a(I288
F5.0
tp4658
a(I293
F5.0
tp4659
a(I322
F5.0
tp4660
a(I332
F5.0
tp4661
a(I537
F5.0
tp4662
a(I739
F5.0
tp4663
a(I989
F5.0
tp4664
aa(lp4665
(I11
F5.0
tp4666
a(I49
F5.0
tp4667
a(I55
F5.0
tp4668
a(I91
F5.0
tp4669
a(I155
F5.0
tp4670
a(I167
F5.0
tp4671
a(I171
F5.0
tp4672
a(I221
F5.0
tp4673
a(I270
F5.0
tp4674
a(I287
F5.0
tp4675
aa(lp4676
(I132
F5.0
tp4677
a(I184
F5.0
tp4678
a(I198
F5.0
tp4679
a(I317
F5.0
tp4680
a(I426
F5.0
tp4681
a(I428
F5.0
tp4682
a(I479
F5.0
tp4683
a(I480
F5.0
tp4684
a(I481
F5.0
tp4685
a(I482
F5.0
tp4686
aa(lp4687
(I244
F5.0
tp4688
a(I262
F5.0
tp4689
a(I267
F5.0
tp4690
a(I288
F5.0
tp4691
a(I302
F5.0
tp4692
a(I331
F5.0
tp4693
a(I333
F5.0
tp4694
a(I340
F5.0
tp4695
a(I358
F5.0
tp4696
a(I679
F5.0
tp4697
aa(lp4698
(I244
F5.0
tp4699
a(I268
F5.0
tp4700
a(I271
F5.0
tp4701
a(I299
F5.0
tp4702
a(I301
F5.0
tp4703
a(I312
F5.0
tp4704
a(I314
F5.0
tp4705
a(I689
F5.0
tp4706
a(I749
F5.0
tp4707
a(I750
F5.0
tp4708
aa(lp4709
(I11
F5.0
tp4710
a(I14
F5.0
tp4711
a(I21
F5.0
tp4712
a(I41
F5.0
tp4713
a(I49
F5.0
tp4714
a(I68
F5.0
tp4715
a(I85
F5.0
tp4716
a(I99
F5.0
tp4717
a(I113
F5.0
tp4718
a(I133
F5.0
tp4719
aa(lp4720
(I18
F5.0
tp4721
a(I97
F5.0
tp4722
a(I99
F5.0
tp4723
a(I123
F5.0
tp4724
a(I128
F5.0
tp4725
a(I220
F5.0
tp4726
a(I236
F5.0
tp4727
a(I317
F5.0
tp4728
a(I1346
F5.0
tp4729
a(I9
F4.0
tp4730
aa(lp4731
(I293
F5.0
tp4732
a(I244
F4.0
tp4733
a(I285
F4.0
tp4734
a(I299
F4.0
tp4735
a(I302
F4.0
tp4736
a(I321
F4.0
tp4737
a(I327
F4.0
tp4738
a(I537
F4.0
tp4739
a(I747
F4.0
tp4740
a(I268
F3.0
tp4741
aa(lp4742
(I49
F5.0
tp4743
a(I149
F5.0
tp4744
a(I180
F5.0
tp4745
a(I236
F5.0
tp4746
a(I248
F5.0
tp4747
a(I254
F5.0
tp4748
a(I256
F5.0
tp4749
a(I281
F5.0
tp4750
a(I287
F5.0
tp4751
a(I292
F5.0
tp4752
aa(lp4753
(I11
F5.0
tp4754
a(I49
F5.0
tp4755
a(I58
F5.0
tp4756
a(I59
F5.0
tp4757
a(I136
F5.0
tp4758
a(I173
F5.0
tp4759
a(I193
F5.0
tp4760
a(I268
F5.0
tp4761
a(I275
F5.0
tp4762
a(I285
F5.0
tp4763
aa(lp4764
(I110
F5.0
tp4765
a(I117
F5.0
tp4766
a(I124
F5.0
tp4767
a(I150
F5.0
tp4768
a(I219
F5.0
tp4769
a(I236
F5.0
tp4770
a(I273
F5.0
tp4771
a(I286
F5.0
tp4772
a(I287
F5.0
tp4773
a(I410
F5.0
tp4774
aa(lp4775
(I0
F5.0
tp4776
a(I9
F5.0
tp4777
a(I10
F5.0
tp4778
a(I11
F5.0
tp4779
a(I24
F5.0
tp4780
a(I30
F5.0
tp4781
a(I44
F5.0
tp4782
a(I49
F5.0
tp4783
a(I51
F5.0
tp4784
a(I54
F5.0
tp4785
aa(lp4786
(I10
F5.0
tp4787
a(I65
F5.0
tp4788
a(I71
F5.0
tp4789
a(I82
F5.0
tp4790
a(I126
F5.0
tp4791
a(I143
F5.0
tp4792
a(I156
F5.0
tp4793
a(I181
F5.0
tp4794
a(I186
F5.0
tp4795
a(I203
F5.0
tp4796
aa(lp4797
(I11
F5.0
tp4798
a(I13
F5.0
tp4799
a(I49
F5.0
tp4800
a(I97
F5.0
tp4801
a(I123
F5.0
tp4802
a(I130
F5.0
tp4803
a(I131
F5.0
tp4804
a(I132
F5.0
tp4805
a(I133
F5.0
tp4806
a(I136
F5.0
tp4807
aa(lp4808
(I49
F5.0
tp4809
a(I120
F5.0
tp4810
a(I147
F5.0
tp4811
a(I236
F5.0
tp4812
a(I244
F5.0
tp4813
a(I279
F5.0
tp4814
a(I281
F5.0
tp4815
a(I320
F5.0
tp4816
a(I475
F5.0
tp4817
a(I814
F5.0
tp4818
aa(lp4819
(I13
F5.0
tp4820
a(I236
F5.0
tp4821
a(I241
F5.0
tp4822
a(I275
F5.0
tp4823
a(I284
F5.0
tp4824
a(I1599
F5.0
tp4825
a(I6
F4.0
tp4826
a(I92
F4.0
tp4827
a(I146
F4.0
tp4828
a(I245
F4.0
tp4829
aa(lp4830
(I56
F5.0
tp4831
a(I85
F5.0
tp4832
a(I170
F5.0
tp4833
a(I241
F5.0
tp4834
a(I270
F5.0
tp4835
a(I271
F5.0
tp4836
a(I282
F5.0
tp4837
a(I303
F5.0
tp4838
a(I311
F5.0
tp4839
a(I323
F5.0
tp4840
aa(lp4841
(I0
F5.0
tp4842
a(I6
F4.0
tp4843
a(I8
F4.0
tp4844
a(I116
F4.0
tp4845
a(I120
F4.0
tp4846
a(I281
F4.0
tp4847
a(I293
F4.0
tp4848
a(I312
F4.0
tp4849
a(I337
F4.0
tp4850
a(I341
F4.0
tp4851
aa(lp4852
(I55
F5.0
tp4853
a(I63
F5.0
tp4854
a(I91
F5.0
tp4855
a(I171
F5.0
tp4856
a(I175
F5.0
tp4857
a(I227
F5.0
tp4858
a(I635
F5.0
tp4859
a(I694
F5.0
tp4860
a(I709
F5.0
tp4861
a(I6
F4.0
tp4862
aa(lp4863
(I11
F5.0
tp4864
a(I257
F5.0
tp4865
a(I285
F5.0
tp4866
a(I293
F5.0
tp4867
a(I308
F5.0
tp4868
a(I332
F5.0
tp4869
a(I339
F5.0
tp4870
a(I342
F5.0
tp4871
a(I270
F4.0
tp4872
a(I312
F4.0
tp4873
aa(lp4874
(I8
F5.0
tp4875
a(I49
F5.0
tp4876
a(I99
F5.0
tp4877
a(I250
F5.0
tp4878
a(I271
F5.0
tp4879
a(I305
F5.0
tp4880
a(I327
F5.0
tp4881
a(I244
F4.0
tp4882
a(I268
F4.0
tp4883
a(I274
F4.0
tp4884
aa(lp4885
(I55
F5.0
tp4886
a(I339
F5.0
tp4887
a(I345
F5.0
tp4888
a(I474
F5.0
tp4889
a(I958
F5.0
tp4890
a(I27
F4.0
tp4891
a(I78
F4.0
tp4892
a(I95
F4.0
tp4893
a(I150
F4.0
tp4894
a(I173
F4.0
tp4895
aa(lp4896
(I291
F5.0
tp4897
a(I244
F4.0
tp4898
a(I268
F4.0
tp4899
a(I269
F4.0
tp4900
a(I301
F4.0
tp4901
a(I320
F4.0
tp4902
a(I886
F4.0
tp4903
a(I285
F3.0
tp4904
a(I288
F3.0
tp4905
a(I299
F3.0
tp4906
aa(lp4907
(I6
F5.0
tp4908
a(I11
F5.0
tp4909
a(I12
F5.0
tp4910
a(I49
F5.0
tp4911
a(I55
F5.0
tp4912
a(I67
F5.0
tp4913
a(I82
F5.0
tp4914
a(I88
F5.0
tp4915
a(I95
F5.0
tp4916
a(I99
F5.0
tp4917
aa(lp4918
(I268
F5.0
tp4919
a(I269
F5.0
tp4920
a(I301
F5.0
tp4921
a(I318
F5.0
tp4922
a(I344
F5.0
tp4923
a(I749
F5.0
tp4924
a(I895
F5.0
tp4925
a(I1021
F5.0
tp4926
a(I1061
F5.0
tp4927
a(I257
F4.0
tp4928
aa(lp4929
(I58
F5.0
tp4930
a(I59
F5.0
tp4931
a(I60
F5.0
tp4932
a(I99
F5.0
tp4933
a(I126
F5.0
tp4934
a(I136
F5.0
tp4935
a(I211
F5.0
tp4936
a(I268
F5.0
tp4937
a(I275
F5.0
tp4938
a(I284
F5.0
tp4939
aa(lp4940
(I10
F5.0
tp4941
a(I21
F5.0
tp4942
a(I22
F5.0
tp4943
a(I25
F5.0
tp4944
a(I32
F5.0
tp4945
a(I48
F5.0
tp4946
a(I49
F5.0
tp4947
a(I86
F5.0
tp4948
a(I87
F5.0
tp4949
a(I88
F5.0
tp4950
aa(lp4951
(I259
F5.0
tp4952
a(I287
F5.0
tp4953
a(I293
F5.0
tp4954
a(I327
F5.0
tp4955
a(I330
F5.0
tp4956
a(I332
F5.0
tp4957
a(I677
F5.0
tp4958
a(I872
F5.0
tp4959
a(I242
F4.0
tp4960
a(I257
F4.0
tp4961
aa(lp4962
(I6
F5.0
tp4963
a(I21
F5.0
tp4964
a(I26
F5.0
tp4965
a(I47
F5.0
tp4966
a(I49
F5.0
tp4967
a(I68
F5.0
tp4968
a(I69
F5.0
tp4969
a(I88
F5.0
tp4970
a(I97
F5.0
tp4971
a(I99
F5.0
tp4972
aa(lp4973
(I6
F5.0
tp4974
a(I10
F5.0
tp4975
a(I11
F5.0
tp4976
a(I21
F5.0
tp4977
a(I41
F5.0
tp4978
a(I49
F5.0
tp4979
a(I55
F5.0
tp4980
a(I99
F5.0
tp4981
a(I155
F5.0
tp4982
a(I171
F5.0
tp4983
aa(lp4984
(I7
F5.0
tp4985
a(I271
F5.0
tp4986
a(I312
F5.0
tp4987
a(I317
F5.0
tp4988
a(I691
F5.0
tp4989
a(I21
F4.0
tp4990
a(I27
F4.0
tp4991
a(I47
F4.0
tp4992
a(I49
F4.0
tp4993
a(I57
F4.0
tp4994
aa(lp4995
(I49
F5.0
tp4996
a(I55
F5.0
tp4997
a(I81
F5.0
tp4998
a(I96
F5.0
tp4999
a(I125
F5.0
tp5000
a(I126
F5.0
tp5001
a(I134
F5.0
tp5002
a(I190
F5.0
tp5003
a(I196
F5.0
tp5004
a(I199
F5.0
tp5005
aa(lp5006
(I13
F5.0
tp5007
a(I55
F5.0
tp5008
a(I126
F5.0
tp5009
a(I169
F5.0
tp5010
a(I171
F5.0
tp5011
a(I178
F5.0
tp5012
a(I267
F5.0
tp5013
a(I345
F5.0
tp5014
a(I473
F5.0
tp5015
a(I474
F5.0
tp5016
aa(lp5017
(I7
F5.0
tp5018
a(I8
F5.0
tp5019
a(I11
F5.0
tp5020
a(I19
F5.0
tp5021
a(I21
F5.0
tp5022
a(I27
F5.0
tp5023
a(I44
F5.0
tp5024
a(I47
F5.0
tp5025
a(I49
F5.0
tp5026
a(I50
F5.0
tp5027
aa(lp5028
(I8
F5.0
tp5029
a(I11
F5.0
tp5030
a(I13
F5.0
tp5031
a(I55
F5.0
tp5032
a(I57
F5.0
tp5033
a(I78
F5.0
tp5034
a(I85
F5.0
tp5035
a(I126
F5.0
tp5036
a(I133
F5.0
tp5037
a(I136
F5.0
tp5038
aa(lp5039
(I6
F5.0
tp5040
a(I7
F5.0
tp5041
a(I21
F5.0
tp5042
a(I97
F5.0
tp5043
a(I116
F5.0
tp5044
a(I120
F5.0
tp5045
a(I147
F5.0
tp5046
a(I171
F5.0
tp5047
a(I249
F5.0
tp5048
a(I256
F5.0
tp5049
aa(lp5050
(I13
F5.0
tp5051
a(I18
F5.0
tp5052
a(I99
F5.0
tp5053
a(I136
F5.0
tp5054
a(I275
F5.0
tp5055
a(I310
F5.0
tp5056
a(I514
F5.0
tp5057
a(I19
F4.0
tp5058
a(I123
F4.0
tp5059
a(I126
F4.0
tp5060
aa(lp5061
(I8
F5.0
tp5062
a(I1005
F5.0
tp5063
a(I257
F4.0
tp5064
a(I284
F4.0
tp5065
a(I303
F4.0
tp5066
a(I312
F4.0
tp5067
a(I326
F4.0
tp5068
a(I346
F4.0
tp5069
a(I49
F3.0
tp5070
a(I241
F3.0
tp5071
aa(lp5072
(I10
F5.0
tp5073
a(I21
F5.0
tp5074
a(I236
F5.0
tp5075
a(I271
F5.0
tp5076
a(I287
F5.0
tp5077
a(I288
F5.0
tp5078
a(I291
F5.0
tp5079
a(I299
F5.0
tp5080
a(I309
F5.0
tp5081
a(I312
F5.0
tp5082
aa(lp5083
(I18
F5.0
tp5084
a(I19
F5.0
tp5085
a(I115
F5.0
tp5086
a(I123
F5.0
tp5087
a(I126
F5.0
tp5088
a(I220
F5.0
tp5089
a(I252
F5.0
tp5090
a(I257
F5.0
tp5091
a(I268
F5.0
tp5092
a(I274
F5.0
tp5093
aa(lp5094
(I11
F5.0
tp5095
a(I126
F5.0
tp5096
a(I193
F5.0
tp5097
a(I247
F5.0
tp5098
a(I257
F5.0
tp5099
a(I268
F5.0
tp5100
a(I291
F5.0
tp5101
a(I292
F5.0
tp5102
a(I294
F5.0
tp5103
a(I301
F5.0
tp5104
aa(lp5105
(I6
F5.0
tp5106
a(I63
F5.0
tp5107
a(I174
F5.0
tp5108
a(I257
F5.0
tp5109
a(I407
F5.0
tp5110
a(I512
F5.0
tp5111
a(I0
F4.0
tp5112
a(I7
F4.0
tp5113
a(I11
F4.0
tp5114
a(I49
F4.0
tp5115
aa(lp5116
(I16
F5.0
tp5117
a(I21
F5.0
tp5118
a(I49
F5.0
tp5119
a(I95
F5.0
tp5120
a(I116
F5.0
tp5121
a(I143
F5.0
tp5122
a(I173
F5.0
tp5123
a(I240
F5.0
tp5124
a(I301
F5.0
tp5125
a(I305
F5.0
tp5126
aa(lp5127
(I6
F5.0
tp5128
a(I99
F5.0
tp5129
a(I108
F5.0
tp5130
a(I123
F5.0
tp5131
a(I126
F5.0
tp5132
a(I245
F5.0
tp5133
a(I267
F5.0
tp5134
a(I275
F5.0
tp5135
a(I1141
F5.0
tp5136
a(I0
F4.0
tp5137
aa(lp5138
(I0
F5.0
tp5139
a(I3
F5.0
tp5140
a(I8
F5.0
tp5141
a(I21
F5.0
tp5142
a(I24
F5.0
tp5143
a(I46
F5.0
tp5144
a(I49
F5.0
tp5145
a(I54
F5.0
tp5146
a(I55
F5.0
tp5147
a(I63
F5.0
tp5148
aa(lp5149
(I9
F5.0
tp5150
a(I63
F5.0
tp5151
a(I133
F5.0
tp5152
a(I193
F5.0
tp5153
a(I285
F5.0
tp5154
a(I473
F5.0
tp5155
a(I482
F5.0
tp5156
a(I483
F5.0
tp5157
a(I486
F5.0
tp5158
a(I489
F5.0
tp5159
aa(lp5160
(I8
F5.0
tp5161
a(I49
F5.0
tp5162
a(I149
F5.0
tp5163
a(I275
F5.0
tp5164
a(I282
F5.0
tp5165
a(I470
F5.0
tp5166
a(I507
F5.0
tp5167
a(I12
F4.0
tp5168
a(I18
F4.0
tp5169
a(I92
F4.0
tp5170
aa(lp5171
(I7
F5.0
tp5172
a(I81
F5.0
tp5173
a(I93
F5.0
tp5174
a(I101
F5.0
tp5175
a(I139
F5.0
tp5176
a(I224
F5.0
tp5177
a(I392
F5.0
tp5178
a(I421
F5.0
tp5179
a(I464
F5.0
tp5180
a(I476
F5.0
tp5181
aa(lp5182
(I0
F5.0
tp5183
a(I1
F5.0
tp5184
a(I2
F5.0
tp5185
a(I6
F5.0
tp5186
a(I10
F5.0
tp5187
a(I11
F5.0
tp5188
a(I21
F5.0
tp5189
a(I23
F5.0
tp5190
a(I27
F5.0
tp5191
a(I28
F5.0
tp5192
aa(lp5193
(I8
F5.0
tp5194
a(I115
F5.0
tp5195
a(I126
F5.0
tp5196
a(I149
F5.0
tp5197
a(I245
F5.0
tp5198
a(I267
F5.0
tp5199
a(I272
F5.0
tp5200
a(I274
F5.0
tp5201
a(I474
F5.0
tp5202
a(I1141
F5.0
tp5203
aa(lp5204
(I3
F5.0
tp5205
a(I6
F5.0
tp5206
a(I7
F5.0
tp5207
a(I8
F5.0
tp5208
a(I10
F5.0
tp5209
a(I11
F5.0
tp5210
a(I12
F5.0
tp5211
a(I13
F5.0
tp5212
a(I14
F5.0
tp5213
a(I24
F5.0
tp5214
aa(lp5215
(I49
F5.0
tp5216
a(I99
F5.0
tp5217
a(I258
F5.0
tp5218
a(I305
F5.0
tp5219
a(I315
F5.0
tp5220
a(I901
F5.0
tp5221
a(I69
F4.0
tp5222
a(I126
F4.0
tp5223
a(I268
F4.0
tp5224
a(I314
F4.0
tp5225
aa(lp5226
(I167
F5.0
tp5227
a(I172
F5.0
tp5228
a(I185
F5.0
tp5229
a(I193
F5.0
tp5230
a(I207
F5.0
tp5231
a(I210
F5.0
tp5232
a(I299
F5.0
tp5233
a(I709
F5.0
tp5234
a(I3
F4.0
tp5235
a(I25
F4.0
tp5236
aa(lp5237
(I24
F5.0
tp5238
a(I48
F5.0
tp5239
a(I65
F5.0
tp5240
a(I87
F5.0
tp5241
a(I110
F5.0
tp5242
a(I254
F5.0
tp5243
a(I273
F5.0
tp5244
a(I274
F5.0
tp5245
a(I288
F5.0
tp5246
a(I450
F5.0
tp5247
aa(lp5248
(I11
F5.0
tp5249
a(I14
F5.0
tp5250
a(I25
F5.0
tp5251
a(I41
F5.0
tp5252
a(I63
F5.0
tp5253
a(I97
F5.0
tp5254
a(I99
F5.0
tp5255
a(I142
F5.0
tp5256
a(I143
F5.0
tp5257
a(I150
F5.0
tp5258
aa(lp5259
(I0
F5.0
tp5260
a(I7
F5.0
tp5261
a(I126
F5.0
tp5262
a(I156
F5.0
tp5263
a(I167
F5.0
tp5264
a(I168
F5.0
tp5265
a(I172
F5.0
tp5266
a(I173
F5.0
tp5267
a(I180
F5.0
tp5268
a(I182
F5.0
tp5269
aa(lp5270
(I7
F5.0
tp5271
a(I11
F5.0
tp5272
a(I164
F5.0
tp5273
a(I165
F5.0
tp5274
a(I168
F5.0
tp5275
a(I173
F5.0
tp5276
a(I189
F5.0
tp5277
a(I212
F5.0
tp5278
a(I49
F4.0
tp5279
a(I55
F4.0
tp5280
aa(lp5281
(I69
F5.0
tp5282
a(I85
F5.0
tp5283
a(I152
F5.0
tp5284
a(I180
F5.0
tp5285
a(I189
F5.0
tp5286
a(I190
F5.0
tp5287
a(I198
F5.0
tp5288
a(I210
F5.0
tp5289
a(I215
F5.0
tp5290
a(I282
F5.0
tp5291
aa(lp5292
(I312
F5.0
tp5293
a(I49
F4.0
tp5294
a(I126
F4.0
tp5295
a(I244
F4.0
tp5296
a(I256
F4.0
tp5297
a(I268
F4.0
tp5298
a(I293
F4.0
tp5299
a(I297
F4.0
tp5300
a(I300
F4.0
tp5301
a(I310
F4.0
tp5302
aa(lp5303
(I49
F5.0
tp5304
a(I108
F5.0
tp5305
a(I227
F5.0
tp5306
a(I229
F5.0
tp5307
a(I282
F5.0
tp5308
a(I0
F4.0
tp5309
a(I172
F4.0
tp5310
a(I180
F4.0
tp5311
a(I257
F4.0
tp5312
a(I273
F4.0
tp5313
aa(lp5314
(I0
F5.0
tp5315
a(I14
F5.0
tp5316
a(I21
F5.0
tp5317
a(I27
F5.0
tp5318
a(I49
F5.0
tp5319
a(I55
F5.0
tp5320
a(I68
F5.0
tp5321
a(I69
F5.0
tp5322
a(I78
F5.0
tp5323
a(I86
F5.0
tp5324
aa(lp5325
(I241
F5.0
tp5326
a(I301
F5.0
tp5327
a(I888
F5.0
tp5328
a(I268
F4.0
tp5329
a(I302
F4.0
tp5330
a(I312
F4.0
tp5331
a(I340
F4.0
tp5332
a(I345
F4.0
tp5333
a(I244
F3.0
tp5334
a(I287
F3.0
tp5335
aa(lp5336
(I6
F5.0
tp5337
a(I8
F5.0
tp5338
a(I13
F5.0
tp5339
a(I49
F5.0
tp5340
a(I99
F5.0
tp5341
a(I123
F5.0
tp5342
a(I126
F5.0
tp5343
a(I250
F5.0
tp5344
a(I257
F5.0
tp5345
a(I284
F5.0
tp5346
aa(lp5347
(I0
F5.0
tp5348
a(I2
F5.0
tp5349
a(I10
F5.0
tp5350
a(I11
F5.0
tp5351
a(I21
F5.0
tp5352
a(I26
F5.0
tp5353
a(I30
F5.0
tp5354
a(I44
F5.0
tp5355
a(I54
F5.0
tp5356
a(I57
F5.0
tp5357
aa(lp5358
(I63
F5.0
tp5359
a(I86
F5.0
tp5360
a(I189
F5.0
tp5361
a(I214
F5.0
tp5362
a(I467
F5.0
tp5363
a(I632
F5.0
tp5364
a(I650
F5.0
tp5365
a(I8
F4.0
tp5366
a(I14
F4.0
tp5367
a(I21
F4.0
tp5368
aa(lp5369
(I257
F5.0
tp5370
a(I265
F5.0
tp5371
a(I271
F5.0
tp5372
a(I299
F5.0
tp5373
a(I301
F5.0
tp5374
a(I314
F5.0
tp5375
a(I315
F5.0
tp5376
a(I321
F5.0
tp5377
a(I322
F5.0
tp5378
a(I324
F5.0
tp5379
aa(lp5380
(I49
F5.0
tp5381
a(I108
F5.0
tp5382
a(I126
F5.0
tp5383
a(I149
F5.0
tp5384
a(I8
F4.0
tp5385
a(I23
F4.0
tp5386
a(I92
F4.0
tp5387
a(I123
F4.0
tp5388
a(I180
F4.0
tp5389
a(I301
F4.0
tp5390
aa(lp5391
(I11
F5.0
tp5392
a(I44
F5.0
tp5393
a(I99
F5.0
tp5394
a(I115
F5.0
tp5395
a(I123
F5.0
tp5396
a(I272
F5.0
tp5397
a(I284
F5.0
tp5398
a(I407
F5.0
tp5399
a(I512
F5.0
tp5400
a(I653
F5.0
tp5401
aa(lp5402
(I55
F5.0
tp5403
a(I126
F5.0
tp5404
a(I186
F5.0
tp5405
a(I241
F5.0
tp5406
a(I317
F5.0
tp5407
a(I473
F5.0
tp5408
a(I510
F5.0
tp5409
a(I520
F5.0
tp5410
a(I526
F5.0
tp5411
a(I527
F5.0
tp5412
aa(lp5413
(I21
F5.0
tp5414
a(I49
F5.0
tp5415
a(I58
F5.0
tp5416
a(I68
F5.0
tp5417
a(I70
F5.0
tp5418
a(I78
F5.0
tp5419
a(I81
F5.0
tp5420
a(I94
F5.0
tp5421
a(I99
F5.0
tp5422
a(I116
F5.0
tp5423
aa(lp5424
(I14
F5.0
tp5425
a(I49
F5.0
tp5426
a(I63
F5.0
tp5427
a(I64
F5.0
tp5428
a(I99
F5.0
tp5429
a(I126
F5.0
tp5430
a(I142
F5.0
tp5431
a(I173
F5.0
tp5432
a(I182
F5.0
tp5433
a(I203
F5.0
tp5434
aa(lp5435
(I8
F5.0
tp5436
a(I10
F5.0
tp5437
a(I49
F5.0
tp5438
a(I53
F5.0
tp5439
a(I55
F5.0
tp5440
a(I63
F5.0
tp5441
a(I67
F5.0
tp5442
a(I70
F5.0
tp5443
a(I78
F5.0
tp5444
a(I81
F5.0
tp5445
aa(lp5446
(I9
F5.0
tp5447
a(I38
F5.0
tp5448
a(I41
F5.0
tp5449
a(I49
F5.0
tp5450
a(I55
F5.0
tp5451
a(I86
F5.0
tp5452
a(I88
F5.0
tp5453
a(I132
F5.0
tp5454
a(I171
F5.0
tp5455
a(I172
F5.0
tp5456
aa(lp5457
(I21
F5.0
tp5458
a(I49
F5.0
tp5459
a(I126
F5.0
tp5460
a(I155
F5.0
tp5461
a(I160
F5.0
tp5462
a(I167
F5.0
tp5463
a(I171
F5.0
tp5464
a(I172
F5.0
tp5465
a(I180
F5.0
tp5466
a(I186
F5.0
tp5467
aa(lp5468
(I9
F5.0
tp5469
a(I88
F5.0
tp5470
a(I134
F5.0
tp5471
a(I155
F5.0
tp5472
a(I159
F5.0
tp5473
a(I174
F5.0
tp5474
a(I191
F5.0
tp5475
a(I196
F5.0
tp5476
a(I202
F5.0
tp5477
a(I479
F5.0
tp5478
aa(lp5479
(I7
F5.0
tp5480
a(I11
F5.0
tp5481
a(I68
F5.0
tp5482
a(I164
F5.0
tp5483
a(I165
F5.0
tp5484
a(I172
F5.0
tp5485
a(I190
F5.0
tp5486
a(I197
F5.0
tp5487
a(I204
F5.0
tp5488
a(I206
F5.0
tp5489
aa(lp5490
(I6
F5.0
tp5491
a(I12
F5.0
tp5492
a(I41
F5.0
tp5493
a(I55
F5.0
tp5494
a(I59
F5.0
tp5495
a(I133
F5.0
tp5496
a(I134
F5.0
tp5497
a(I169
F5.0
tp5498
a(I174
F5.0
tp5499
a(I234
F5.0
tp5500
aa(lp5501
(I126
F5.0
tp5502
a(I149
F5.0
tp5503
a(I474
F5.0
tp5504
a(I740
F5.0
tp5505
a(I1066
F5.0
tp5506
a(I1096
F5.0
tp5507
a(I6
F4.0
tp5508
a(I12
F4.0
tp5509
a(I92
F4.0
tp5510
a(I99
F4.0
tp5511
aa(lp5512
(I270
F5.0
tp5513
a(I287
F5.0
tp5514
a(I342
F5.0
tp5515
a(I681
F5.0
tp5516
a(I306
F4.0
tp5517
a(I312
F4.0
tp5518
a(I322
F4.0
tp5519
a(I327
F4.0
tp5520
a(I332
F4.0
tp5521
a(I337
F4.0
tp5522
aa(lp5523
(I0
F5.0
tp5524
a(I7
F5.0
tp5525
a(I9
F5.0
tp5526
a(I18
F5.0
tp5527
a(I19
F5.0
tp5528
a(I43
F5.0
tp5529
a(I44
F5.0
tp5530
a(I46
F5.0
tp5531
a(I49
F5.0
tp5532
a(I78
F5.0
tp5533
aa(lp5534
(I67
F5.0
tp5535
a(I70
F5.0
tp5536
a(I97
F5.0
tp5537
a(I99
F5.0
tp5538
a(I126
F5.0
tp5539
a(I131
F5.0
tp5540
a(I132
F5.0
tp5541
a(I167
F5.0
tp5542
a(I184
F5.0
tp5543
a(I222
F5.0
tp5544
aa(lp5545
(I21
F5.0
tp5546
a(I131
F5.0
tp5547
a(I132
F5.0
tp5548
a(I312
F5.0
tp5549
a(I377
F5.0
tp5550
a(I401
F5.0
tp5551
a(I495
F5.0
tp5552
a(I497
F5.0
tp5553
a(I525
F5.0
tp5554
a(I587
F5.0
tp5555
aa(lp5556
(I7
F5.0
tp5557
a(I11
F5.0
tp5558
a(I49
F5.0
tp5559
a(I68
F5.0
tp5560
a(I70
F5.0
tp5561
a(I78
F5.0
tp5562
a(I81
F5.0
tp5563
a(I88
F5.0
tp5564
a(I94
F5.0
tp5565
a(I134
F5.0
tp5566
aa(lp5567
(I49
F5.0
tp5568
a(I117
F5.0
tp5569
a(I120
F5.0
tp5570
a(I146
F5.0
tp5571
a(I180
F5.0
tp5572
a(I221
F5.0
tp5573
a(I244
F5.0
tp5574
a(I249
F5.0
tp5575
a(I251
F5.0
tp5576
a(I256
F5.0
tp5577
aa(lp5578
(I0
F5.0
tp5579
a(I49
F5.0
tp5580
a(I100
F5.0
tp5581
a(I131
F5.0
tp5582
a(I149
F5.0
tp5583
a(I150
F5.0
tp5584
a(I153
F5.0
tp5585
a(I171
F5.0
tp5586
a(I179
F5.0
tp5587
a(I182
F5.0
tp5588
aa(lp5589
(I49
F5.0
tp5590
a(I287
F5.0
tp5591
a(I301
F5.0
tp5592
a(I180
F4.0
tp5593
a(I257
F4.0
tp5594
a(I270
F4.0
tp5595
a(I325
F4.0
tp5596
a(I602
F4.0
tp5597
a(I704
F4.0
tp5598
a(I299
F3.0
tp5599
aa(lp5600
(I299
F5.0
tp5601
a(I312
F5.0
tp5602
a(I257
F4.0
tp5603
a(I291
F4.0
tp5604
a(I322
F4.0
tp5605
a(I325
F4.0
tp5606
a(I677
F4.0
tp5607
a(I242
F3.0
tp5608
a(I244
F3.0
tp5609
a(I285
F3.0
tp5610
aa(lp5611
(I270
F5.0
tp5612
a(I291
F5.0
tp5613
a(I312
F5.0
tp5614
a(I871
F5.0
tp5615
a(I879
F5.0
tp5616
a(I886
F5.0
tp5617
a(I259
F4.0
tp5618
a(I287
F4.0
tp5619
a(I293
F4.0
tp5620
a(I299
F4.0
tp5621
aa(lp5622
(I10
F5.0
tp5623
a(I49
F5.0
tp5624
a(I55
F5.0
tp5625
a(I96
F5.0
tp5626
a(I182
F5.0
tp5627
a(I185
F5.0
tp5628
a(I197
F5.0
tp5629
a(I272
F5.0
tp5630
a(I285
F5.0
tp5631
a(I317
F5.0
tp5632
aa(lp5633
(I49
F5.0
tp5634
a(I116
F5.0
tp5635
a(I120
F5.0
tp5636
a(I180
F5.0
tp5637
a(I209
F5.0
tp5638
a(I221
F5.0
tp5639
a(I251
F5.0
tp5640
a(I264
F5.0
tp5641
a(I322
F5.0
tp5642
a(I434
F5.0
tp5643
aa(lp5644
(I0
F5.0
tp5645
a(I6
F5.0
tp5646
a(I11
F5.0
tp5647
a(I27
F5.0
tp5648
a(I41
F5.0
tp5649
a(I49
F5.0
tp5650
a(I69
F5.0
tp5651
a(I82
F5.0
tp5652
a(I86
F5.0
tp5653
a(I95
F5.0
tp5654
aa(lp5655
(I299
F5.0
tp5656
a(I257
F4.0
tp5657
a(I270
F4.0
tp5658
a(I287
F4.0
tp5659
a(I303
F4.0
tp5660
a(I306
F4.0
tp5661
a(I312
F4.0
tp5662
a(I314
F4.0
tp5663
a(I361
F4.0
tp5664
a(I681
F4.0
tp5665
aa(lp5666
(I49
F5.0
tp5667
a(I168
F5.0
tp5668
a(I285
F5.0
tp5669
a(I473
F5.0
tp5670
a(I581
F5.0
tp5671
a(I659
F5.0
tp5672
a(I901
F5.0
tp5673
a(I180
F4.0
tp5674
a(I190
F4.0
tp5675
a(I193
F4.0
tp5676
aa(lp5677
(I49
F5.0
tp5678
a(I257
F5.0
tp5679
a(I274
F5.0
tp5680
a(I299
F5.0
tp5681
a(I368
F5.0
tp5682
a(I760
F5.0
tp5683
a(I1176
F5.0
tp5684
a(I116
F4.0
tp5685
a(I126
F4.0
tp5686
a(I180
F4.0
tp5687
aa(lp5688
(I24
F5.0
tp5689
a(I105
F5.0
tp5690
a(I116
F5.0
tp5691
a(I117
F5.0
tp5692
a(I120
F5.0
tp5693
a(I124
F5.0
tp5694
a(I128
F5.0
tp5695
a(I221
F5.0
tp5696
a(I272
F5.0
tp5697
a(I275
F5.0
tp5698
aa(lp5699
(I262
F5.0
tp5700
a(I265
F5.0
tp5701
a(I267
F5.0
tp5702
a(I298
F5.0
tp5703
a(I312
F5.0
tp5704
a(I329
F5.0
tp5705
a(I334
F5.0
tp5706
a(I335
F5.0
tp5707
a(I339
F5.0
tp5708
a(I347
F5.0
tp5709
aa(lp5710
(I241
F5.0
tp5711
a(I268
F5.0
tp5712
a(I285
F5.0
tp5713
a(I689
F5.0
tp5714
a(I897
F5.0
tp5715
a(I24
F4.0
tp5716
a(I99
F4.0
tp5717
a(I282
F4.0
tp5718
a(I288
F4.0
tp5719
a(I299
F4.0
tp5720
aa(lp5721
(I11
F5.0
tp5722
a(I41
F5.0
tp5723
a(I108
F5.0
tp5724
a(I205
F5.0
tp5725
a(I238
F5.0
tp5726
a(I267
F5.0
tp5727
a(I10
F4.0
tp5728
a(I21
F4.0
tp5729
a(I32
F4.0
tp5730
a(I49
F4.0
tp5731
aa(lp5732
(I11
F5.0
tp5733
a(I22
F5.0
tp5734
a(I99
F5.0
tp5735
a(I133
F5.0
tp5736
a(I134
F5.0
tp5737
a(I167
F5.0
tp5738
a(I178
F5.0
tp5739
a(I179
F5.0
tp5740
a(I191
F5.0
tp5741
a(I207
F5.0
tp5742
aa(lp5743
(I0
F5.0
tp5744
a(I7
F5.0
tp5745
a(I13
F5.0
tp5746
a(I49
F5.0
tp5747
a(I69
F5.0
tp5748
a(I82
F5.0
tp5749
a(I113
F5.0
tp5750
a(I115
F5.0
tp5751
a(I162
F5.0
tp5752
a(I168
F5.0
tp5753
aa(lp5754
(I5
F5.0
tp5755
a(I13
F5.0
tp5756
a(I22
F5.0
tp5757
a(I38
F5.0
tp5758
a(I59
F5.0
tp5759
a(I88
F5.0
tp5760
a(I96
F5.0
tp5761
a(I99
F5.0
tp5762
a(I110
F5.0
tp5763
a(I123
F5.0
tp5764
aa(lp5765
(I24
F5.0
tp5766
a(I150
F5.0
tp5767
a(I268
F5.0
tp5768
a(I275
F5.0
tp5769
a(I0
F4.0
tp5770
a(I14
F4.0
tp5771
a(I99
F4.0
tp5772
a(I110
F4.0
tp5773
a(I120
F4.0
tp5774
a(I180
F4.0
tp5775
aa(lp5776
(I0
F5.0
tp5777
a(I49
F5.0
tp5778
a(I99
F5.0
tp5779
a(I268
F5.0
tp5780
a(I271
F5.0
tp5781
a(I284
F5.0
tp5782
a(I292
F5.0
tp5783
a(I301
F5.0
tp5784
a(I312
F5.0
tp5785
a(I314
F5.0
tp5786
aa(lp5787
(I6
F5.0
tp5788
a(I8
F5.0
tp5789
a(I21
F5.0
tp5790
a(I22
F5.0
tp5791
a(I58
F5.0
tp5792
a(I99
F5.0
tp5793
a(I126
F5.0
tp5794
a(I133
F5.0
tp5795
a(I152
F5.0
tp5796
a(I167
F5.0
tp5797
aa(lp5798
(I30
F5.0
tp5799
a(I49
F5.0
tp5800
a(I57
F5.0
tp5801
a(I78
F5.0
tp5802
a(I82
F5.0
tp5803
a(I172
F5.0
tp5804
a(I173
F5.0
tp5805
a(I180
F5.0
tp5806
a(I193
F5.0
tp5807
a(I201
F5.0
tp5808
aa(lp5809
(I267
F5.0
tp5810
a(I306
F5.0
tp5811
a(I257
F4.0
tp5812
a(I259
F4.0
tp5813
a(I269
F4.0
tp5814
a(I270
F4.0
tp5815
a(I285
F4.0
tp5816
a(I287
F4.0
tp5817
a(I291
F4.0
tp5818
a(I293
F4.0
tp5819
aa(lp5820
(I59
F5.0
tp5821
a(I63
F5.0
tp5822
a(I177
F5.0
tp5823
a(I190
F5.0
tp5824
a(I195
F5.0
tp5825
a(I219
F5.0
tp5826
a(I274
F5.0
tp5827
a(I356
F5.0
tp5828
a(I606
F5.0
tp5829
a(I49
F4.0
tp5830
aa(lp5831
(I285
F5.0
tp5832
a(I301
F5.0
tp5833
a(I311
F5.0
tp5834
a(I312
F5.0
tp5835
a(I322
F5.0
tp5836
a(I328
F5.0
tp5837
a(I689
F5.0
tp5838
a(I897
F5.0
tp5839
a(I989
F5.0
tp5840
a(I244
F4.0
tp5841
aa(lp5842
(I0
F5.0
tp5843
a(I1
F5.0
tp5844
a(I3
F5.0
tp5845
a(I6
F5.0
tp5846
a(I7
F5.0
tp5847
a(I8
F5.0
tp5848
a(I10
F5.0
tp5849
a(I11
F5.0
tp5850
a(I21
F5.0
tp5851
a(I23
F5.0
tp5852
aa(lp5853
(I19
F5.0
tp5854
a(I49
F5.0
tp5855
a(I63
F5.0
tp5856
a(I99
F5.0
tp5857
a(I116
F5.0
tp5858
a(I124
F5.0
tp5859
a(I126
F5.0
tp5860
a(I131
F5.0
tp5861
a(I132
F5.0
tp5862
a(I180
F5.0
tp5863
aa(lp5864
(I0
F5.0
tp5865
a(I23
F5.0
tp5866
a(I24
F5.0
tp5867
a(I116
F5.0
tp5868
a(I146
F5.0
tp5869
a(I239
F5.0
tp5870
a(I272
F5.0
tp5871
a(I275
F5.0
tp5872
a(I281
F5.0
tp5873
a(I293
F5.0
tp5874
aa(lp5875
(I6
F5.0
tp5876
a(I8
F5.0
tp5877
a(I46
F5.0
tp5878
a(I49
F5.0
tp5879
a(I57
F5.0
tp5880
a(I59
F5.0
tp5881
a(I63
F5.0
tp5882
a(I86
F5.0
tp5883
a(I99
F5.0
tp5884
a(I128
F5.0
tp5885
aa(lp5886
(I0
F5.0
tp5887
a(I7
F5.0
tp5888
a(I21
F5.0
tp5889
a(I27
F5.0
tp5890
a(I49
F5.0
tp5891
a(I68
F5.0
tp5892
a(I70
F5.0
tp5893
a(I82
F5.0
tp5894
a(I94
F5.0
tp5895
a(I134
F5.0
tp5896
aa(lp5897
(I55
F5.0
tp5898
a(I126
F5.0
tp5899
a(I133
F5.0
tp5900
a(I134
F5.0
tp5901
a(I204
F5.0
tp5902
a(I261
F5.0
tp5903
a(I473
F5.0
tp5904
a(I510
F5.0
tp5905
a(I542
F5.0
tp5906
a(I643
F5.0
tp5907
aa(lp5908
(I21
F5.0
tp5909
a(I49
F5.0
tp5910
a(I68
F5.0
tp5911
a(I96
F5.0
tp5912
a(I97
F5.0
tp5913
a(I126
F5.0
tp5914
a(I186
F5.0
tp5915
a(I190
F5.0
tp5916
a(I198
F5.0
tp5917
a(I214
F5.0
tp5918
aa(lp5919
(I18
F5.0
tp5920
a(I58
F5.0
tp5921
a(I68
F5.0
tp5922
a(I131
F5.0
tp5923
a(I152
F5.0
tp5924
a(I169
F5.0
tp5925
a(I196
F5.0
tp5926
a(I201
F5.0
tp5927
a(I241
F5.0
tp5928
a(I268
F5.0
tp5929
aa(lp5930
(I8
F5.0
tp5931
a(I49
F5.0
tp5932
a(I99
F5.0
tp5933
a(I514
F5.0
tp5934
a(I6
F4.0
tp5935
a(I12
F4.0
tp5936
a(I19
F4.0
tp5937
a(I24
F4.0
tp5938
a(I108
F4.0
tp5939
a(I110
F4.0
tp5940
aa(lp5941
(I7
F5.0
tp5942
a(I49
F5.0
tp5943
a(I70
F5.0
tp5944
a(I78
F5.0
tp5945
a(I82
F5.0
tp5946
a(I90
F5.0
tp5947
a(I139
F5.0
tp5948
a(I141
F5.0
tp5949
a(I171
F5.0
tp5950
a(I172
F5.0
tp5951
aa(lp5952
(I22
F5.0
tp5953
a(I46
F5.0
tp5954
a(I47
F5.0
tp5955
a(I55
F5.0
tp5956
a(I98
F5.0
tp5957
a(I126
F5.0
tp5958
a(I190
F5.0
tp5959
a(I191
F5.0
tp5960
a(I356
F5.0
tp5961
a(I426
F5.0
tp5962
aa(lp5963
(I11
F5.0
tp5964
a(I55
F5.0
tp5965
a(I59
F5.0
tp5966
a(I133
F5.0
tp5967
a(I134
F5.0
tp5968
a(I189
F5.0
tp5969
a(I206
F5.0
tp5970
a(I370
F5.0
tp5971
a(I473
F5.0
tp5972
a(I602
F5.0
tp5973
aa(lp5974
(I301
F5.0
tp5975
a(I312
F5.0
tp5976
a(I285
F4.0
tp5977
a(I291
F4.0
tp5978
a(I299
F4.0
tp5979
a(I345
F4.0
tp5980
a(I748
F4.0
tp5981
a(I257
F3.0
tp5982
a(I269
F3.0
tp5983
a(I270
F3.0
tp5984
aa(lp5985
(I0
F5.0
tp5986
a(I49
F5.0
tp5987
a(I61
F5.0
tp5988
a(I70
F5.0
tp5989
a(I95
F5.0
tp5990
a(I97
F5.0
tp5991
a(I120
F5.0
tp5992
a(I171
F5.0
tp5993
a(I172
F5.0
tp5994
a(I180
F5.0
tp5995
aa(lp5996
(I4
F5.0
tp5997
a(I6
F5.0
tp5998
a(I49
F5.0
tp5999
a(I52
F5.0
tp6000
a(I55
F5.0
tp6001
a(I97
F5.0
tp6002
a(I108
F5.0
tp6003
a(I117
F5.0
tp6004
a(I120
F5.0
tp6005
a(I180
F5.0
tp6006
aa(lp6007
(I301
F5.0
tp6008
a(I312
F5.0
tp6009
a(I315
F5.0
tp6010
a(I344
F5.0
tp6011
a(I257
F4.0
tp6012
a(I311
F4.0
tp6013
a(I314
F4.0
tp6014
a(I318
F4.0
tp6015
a(I320
F4.0
tp6016
a(I327
F4.0
tp6017
aa(lp6018
(I6
F5.0
tp6019
a(I11
F5.0
tp6020
a(I22
F5.0
tp6021
a(I30
F5.0
tp6022
a(I38
F5.0
tp6023
a(I49
F5.0
tp6024
a(I54
F5.0
tp6025
a(I55
F5.0
tp6026
a(I78
F5.0
tp6027
a(I97
F5.0
tp6028
aa(lp6029
(I0
F5.0
tp6030
a(I49
F5.0
tp6031
a(I126
F5.0
tp6032
a(I257
F5.0
tp6033
a(I514
F5.0
tp6034
a(I99
F4.0
tp6035
a(I117
F4.0
tp6036
a(I120
F4.0
tp6037
a(I180
F4.0
tp6038
a(I236
F4.0
tp6039
aa(lp6040
(I14
F5.0
tp6041
a(I49
F5.0
tp6042
a(I120
F5.0
tp6043
a(I180
F5.0
tp6044
a(I257
F5.0
tp6045
a(I270
F5.0
tp6046
a(I287
F5.0
tp6047
a(I309
F5.0
tp6048
a(I312
F5.0
tp6049
a(I322
F5.0
tp6050
aa(lp6051
(I2
F5.0
tp6052
a(I6
F5.0
tp6053
a(I8
F5.0
tp6054
a(I10
F5.0
tp6055
a(I14
F5.0
tp6056
a(I16
F5.0
tp6057
a(I21
F5.0
tp6058
a(I23
F5.0
tp6059
a(I32
F5.0
tp6060
a(I41
F5.0
tp6061
aa(lp6062
(I13
F4.0
tp6063
a(I49
F4.0
tp6064
a(I99
F4.0
tp6065
a(I120
F4.0
tp6066
a(I125
F4.0
tp6067
a(I126
F4.0
tp6068
a(I221
F4.0
tp6069
a(I236
F4.0
tp6070
a(I247
F4.0
tp6071
a(I257
F4.0
tp6072
aa(lp6073
(I21
F5.0
tp6074
a(I22
F5.0
tp6075
a(I88
F5.0
tp6076
a(I97
F5.0
tp6077
a(I98
F5.0
tp6078
a(I99
F5.0
tp6079
a(I130
F5.0
tp6080
a(I150
F5.0
tp6081
a(I152
F5.0
tp6082
a(I177
F5.0
tp6083
aa(lp6084
(I68
F5.0
tp6085
a(I78
F5.0
tp6086
a(I97
F5.0
tp6087
a(I171
F5.0
tp6088
a(I173
F5.0
tp6089
a(I190
F5.0
tp6090
a(I203
F5.0
tp6091
a(I214
F5.0
tp6092
a(I227
F5.0
tp6093
a(I229
F5.0
tp6094
aa(lp6095
(I12
F5.0
tp6096
a(I49
F5.0
tp6097
a(I99
F5.0
tp6098
a(I168
F5.0
tp6099
a(I180
F5.0
tp6100
a(I235
F5.0
tp6101
a(I243
F5.0
tp6102
a(I251
F5.0
tp6103
a(I268
F5.0
tp6104
a(I284
F5.0
tp6105
aa(lp6106
(I11
F5.0
tp6107
a(I47
F5.0
tp6108
a(I63
F5.0
tp6109
a(I126
F5.0
tp6110
a(I131
F5.0
tp6111
a(I132
F5.0
tp6112
a(I133
F5.0
tp6113
a(I171
F5.0
tp6114
a(I177
F5.0
tp6115
a(I186
F5.0
tp6116
aa(lp6117
(I7
F5.0
tp6118
a(I11
F5.0
tp6119
a(I95
F5.0
tp6120
a(I164
F5.0
tp6121
a(I179
F5.0
tp6122
a(I196
F5.0
tp6123
a(I197
F5.0
tp6124
a(I245
F5.0
tp6125
a(I267
F5.0
tp6126
a(I297
F5.0
tp6127
aa(lp6128
(I18
F5.0
tp6129
a(I19
F5.0
tp6130
a(I99
F5.0
tp6131
a(I115
F5.0
tp6132
a(I252
F5.0
tp6133
a(I284
F5.0
tp6134
a(I507
F5.0
tp6135
a(I935
F5.0
tp6136
a(I8
F4.0
tp6137
a(I13
F4.0
tp6138
aa(lp6139
(I68
F5.0
tp6140
a(I143
F5.0
tp6141
a(I187
F5.0
tp6142
a(I190
F5.0
tp6143
a(I195
F5.0
tp6144
a(I198
F5.0
tp6145
a(I204
F5.0
tp6146
a(I215
F5.0
tp6147
a(I225
F5.0
tp6148
a(I314
F5.0
tp6149
aa(lp6150
(I11
F5.0
tp6151
a(I49
F5.0
tp6152
a(I88
F5.0
tp6153
a(I99
F5.0
tp6154
a(I126
F5.0
tp6155
a(I133
F5.0
tp6156
a(I182
F5.0
tp6157
a(I245
F5.0
tp6158
a(I248
F5.0
tp6159
a(I257
F5.0
tp6160
aa(lp6161
(I6
F5.0
tp6162
a(I11
F5.0
tp6163
a(I22
F5.0
tp6164
a(I55
F5.0
tp6165
a(I170
F5.0
tp6166
a(I182
F5.0
tp6167
a(I272
F5.0
tp6168
a(I345
F5.0
tp6169
a(I431
F5.0
tp6170
a(I473
F5.0
tp6171
aa(lp6172
(I49
F5.0
tp6173
a(I81
F5.0
tp6174
a(I87
F5.0
tp6175
a(I126
F5.0
tp6176
a(I134
F5.0
tp6177
a(I142
F5.0
tp6178
a(I143
F5.0
tp6179
a(I147
F5.0
tp6180
a(I172
F5.0
tp6181
a(I173
F5.0
tp6182
aa(lp6183
(I49
F5.0
tp6184
a(I171
F5.0
tp6185
a(I236
F5.0
tp6186
a(I254
F5.0
tp6187
a(I256
F5.0
tp6188
a(I320
F5.0
tp6189
a(I691
F5.0
tp6190
a(I69
F4.0
tp6191
a(I117
F4.0
tp6192
a(I152
F4.0
tp6193
aa(lp6194
(I49
F4.0
tp6195
a(I116
F4.0
tp6196
a(I117
F4.0
tp6197
a(I120
F4.0
tp6198
a(I126
F4.0
tp6199
a(I180
F4.0
tp6200
a(I244
F4.0
tp6201
a(I256
F4.0
tp6202
a(I257
F4.0
tp6203
a(I288
F4.0
tp6204
aa(lp6205
(I9
F5.0
tp6206
a(I29
F5.0
tp6207
a(I51
F5.0
tp6208
a(I69
F5.0
tp6209
a(I82
F5.0
tp6210
a(I85
F5.0
tp6211
a(I169
F5.0
tp6212
a(I170
F5.0
tp6213
a(I178
F5.0
tp6214
a(I189
F5.0
tp6215
aa(lp6216
(I1
F5.0
tp6217
a(I63
F5.0
tp6218
a(I99
F5.0
tp6219
a(I126
F5.0
tp6220
a(I133
F5.0
tp6221
a(I134
F5.0
tp6222
a(I136
F5.0
tp6223
a(I156
F5.0
tp6224
a(I162
F5.0
tp6225
a(I164
F5.0
tp6226
aa(lp6227
(I31
F5.0
tp6228
a(I58
F5.0
tp6229
a(I59
F5.0
tp6230
a(I88
F5.0
tp6231
a(I126
F5.0
tp6232
a(I133
F5.0
tp6233
a(I135
F5.0
tp6234
a(I155
F5.0
tp6235
a(I167
F5.0
tp6236
a(I174
F5.0
tp6237
aa(lp6238
(I133
F5.0
tp6239
a(I473
F5.0
tp6240
a(I478
F5.0
tp6241
a(I482
F5.0
tp6242
a(I487
F5.0
tp6243
a(I602
F5.0
tp6244
a(I605
F5.0
tp6245
a(I614
F5.0
tp6246
a(I630
F5.0
tp6247
a(I640
F5.0
tp6248
aa(lp6249
(I8
F5.0
tp6250
a(I18
F5.0
tp6251
a(I49
F5.0
tp6252
a(I99
F5.0
tp6253
a(I123
F5.0
tp6254
a(I125
F5.0
tp6255
a(I150
F5.0
tp6256
a(I257
F5.0
tp6257
a(I285
F5.0
tp6258
a(I0
F4.0
tp6259
aa(lp6260
(I302
F5.0
tp6261
a(I304
F5.0
tp6262
a(I270
F4.0
tp6263
a(I285
F4.0
tp6264
a(I301
F4.0
tp6265
a(I326
F4.0
tp6266
a(I257
F3.0
tp6267
a(I267
F3.0
tp6268
a(I300
F3.0
tp6269
a(I339
F3.0
tp6270
aa(lp6271
(I44
F4.0
tp6272
a(I63
F4.0
tp6273
a(I113
F4.0
tp6274
a(I123
F4.0
tp6275
a(I173
F4.0
tp6276
a(I180
F4.0
tp6277
a(I190
F4.0
tp6278
a(I356
F4.0
tp6279
a(I461
F4.0
tp6280
a(I483
F4.0
tp6281
aa(lp6282
(I8
F5.0
tp6283
a(I123
F5.0
tp6284
a(I12
F4.0
tp6285
a(I13
F4.0
tp6286
a(I285
F4.0
tp6287
a(I299
F4.0
tp6288
a(I300
F4.0
tp6289
a(I318
F4.0
tp6290
a(I475
F4.0
tp6291
a(I812
F4.0
tp6292
aa(lp6293
(I210
F5.0
tp6294
a(I506
F5.0
tp6295
a(I9
F4.0
tp6296
a(I21
F4.0
tp6297
a(I49
F4.0
tp6298
a(I68
F4.0
tp6299
a(I126
F4.0
tp6300
a(I133
F4.0
tp6301
a(I134
F4.0
tp6302
a(I143
F4.0
tp6303
aa(lp6304
(I99
F5.0
tp6305
a(I241
F5.0
tp6306
a(I244
F5.0
tp6307
a(I257
F5.0
tp6308
a(I261
F5.0
tp6309
a(I267
F5.0
tp6310
a(I268
F5.0
tp6311
a(I318
F5.0
tp6312
a(I343
F5.0
tp6313
a(I1061
F5.0
tp6314
aa(lp6315
(I78
F5.0
tp6316
a(I95
F5.0
tp6317
a(I167
F5.0
tp6318
a(I172
F5.0
tp6319
a(I317
F5.0
tp6320
a(I356
F5.0
tp6321
a(I602
F5.0
tp6322
a(I97
F4.0
tp6323
a(I175
F4.0
tp6324
a(I193
F4.0
tp6325
aa(lp6326
(I6
F5.0
tp6327
a(I69
F5.0
tp6328
a(I279
F5.0
tp6329
a(I513
F5.0
tp6330
a(I0
F4.0
tp6331
a(I14
F4.0
tp6332
a(I49
F4.0
tp6333
a(I99
F4.0
tp6334
a(I123
F4.0
tp6335
a(I124
F4.0
tp6336
aa(lp6337
(I0
F5.0
tp6338
a(I21
F5.0
tp6339
a(I27
F5.0
tp6340
a(I47
F5.0
tp6341
a(I63
F5.0
tp6342
a(I64
F5.0
tp6343
a(I70
F5.0
tp6344
a(I86
F5.0
tp6345
a(I94
F5.0
tp6346
a(I96
F5.0
tp6347
aa(lp6348
(I312
F5.0
tp6349
a(I221
F4.0
tp6350
a(I297
F4.0
tp6351
a(I299
F4.0
tp6352
a(I1015
F4.0
tp6353
a(I244
F3.0
tp6354
a(I287
F3.0
tp6355
a(I293
F3.0
tp6356
a(I322
F3.0
tp6357
a(I345
F3.0
tp6358
aa(lp6359
(I49
F5.0
tp6360
a(I82
F5.0
tp6361
a(I172
F5.0
tp6362
a(I193
F5.0
tp6363
a(I201
F5.0
tp6364
a(I215
F5.0
tp6365
a(I257
F5.0
tp6366
a(I434
F5.0
tp6367
a(I602
F5.0
tp6368
a(I708
F5.0
tp6369
aa(lp6370
(I2
F5.0
tp6371
a(I49
F5.0
tp6372
a(I180
F5.0
tp6373
a(I248
F5.0
tp6374
a(I249
F5.0
tp6375
a(I251
F5.0
tp6376
a(I256
F5.0
tp6377
a(I257
F5.0
tp6378
a(I270
F5.0
tp6379
a(I281
F5.0
tp6380
aa(lp6381
(I8
F5.0
tp6382
a(I99
F5.0
tp6383
a(I126
F5.0
tp6384
a(I136
F5.0
tp6385
a(I252
F5.0
tp6386
a(I284
F5.0
tp6387
a(I812
F5.0
tp6388
a(I843
F5.0
tp6389
a(I918
F5.0
tp6390
a(I921
F5.0
tp6391
aa(lp6392
(I6
F5.0
tp6393
a(I49
F5.0
tp6394
a(I92
F5.0
tp6395
a(I99
F5.0
tp6396
a(I292
F5.0
tp6397
a(I312
F5.0
tp6398
a(I474
F5.0
tp6399
a(I749
F5.0
tp6400
a(I918
F5.0
tp6401
a(I0
F4.0
tp6402
aa(lp6403
(I6
F5.0
tp6404
a(I11
F5.0
tp6405
a(I99
F5.0
tp6406
a(I174
F5.0
tp6407
a(I199
F5.0
tp6408
a(I267
F5.0
tp6409
a(I356
F5.0
tp6410
a(I424
F5.0
tp6411
a(I482
F5.0
tp6412
a(I512
F5.0
tp6413
aa(lp6414
(I227
F5.0
tp6415
a(I312
F5.0
tp6416
a(I39
F4.0
tp6417
a(I49
F4.0
tp6418
a(I108
F4.0
tp6419
a(I113
F4.0
tp6420
a(I160
F4.0
tp6421
a(I171
F4.0
tp6422
a(I180
F4.0
tp6423
a(I221
F4.0
tp6424
aa(lp6425
(I44
F5.0
tp6426
a(I69
F5.0
tp6427
a(I85
F5.0
tp6428
a(I169
F5.0
tp6429
a(I197
F5.0
tp6430
a(I206
F5.0
tp6431
a(I211
F5.0
tp6432
a(I212
F5.0
tp6433
a(I462
F5.0
tp6434
a(I509
F5.0
tp6435
aa(lp6436
(I2
F5.0
tp6437
a(I16
F5.0
tp6438
a(I28
F5.0
tp6439
a(I32
F5.0
tp6440
a(I52
F5.0
tp6441
a(I55
F5.0
tp6442
a(I66
F5.0
tp6443
a(I75
F5.0
tp6444
a(I120
F5.0
tp6445
a(I160
F5.0
tp6446
aa(lp6447
(I271
F5.0
tp6448
a(I312
F5.0
tp6449
a(I324
F5.0
tp6450
a(I339
F5.0
tp6451
a(I257
F4.0
tp6452
a(I258
F4.0
tp6453
a(I259
F4.0
tp6454
a(I261
F4.0
tp6455
a(I263
F4.0
tp6456
a(I267
F4.0
tp6457
aa(lp6458
(I7
F5.0
tp6459
a(I11
F5.0
tp6460
a(I14
F5.0
tp6461
a(I20
F5.0
tp6462
a(I21
F5.0
tp6463
a(I27
F5.0
tp6464
a(I41
F5.0
tp6465
a(I49
F5.0
tp6466
a(I62
F5.0
tp6467
a(I67
F5.0
tp6468
aa(lp6469
(I258
F5.0
tp6470
a(I271
F5.0
tp6471
a(I287
F5.0
tp6472
a(I293
F5.0
tp6473
a(I299
F5.0
tp6474
a(I303
F5.0
tp6475
a(I309
F5.0
tp6476
a(I312
F5.0
tp6477
a(I327
F5.0
tp6478
a(I332
F5.0
tp6479
aa(lp6480
(I5
F5.0
tp6481
a(I13
F5.0
tp6482
a(I18
F5.0
tp6483
a(I99
F5.0
tp6484
a(I115
F5.0
tp6485
a(I123
F5.0
tp6486
a(I125
F5.0
tp6487
a(I136
F5.0
tp6488
a(I149
F5.0
tp6489
a(I284
F5.0
tp6490
aa(lp6491
(I44
F5.0
tp6492
a(I63
F5.0
tp6493
a(I85
F5.0
tp6494
a(I99
F5.0
tp6495
a(I190
F5.0
tp6496
a(I237
F5.0
tp6497
a(I284
F5.0
tp6498
a(I305
F5.0
tp6499
a(I356
F5.0
tp6500
a(I602
F5.0
tp6501
aa(lp6502
(I6
F5.0
tp6503
a(I7
F5.0
tp6504
a(I8
F5.0
tp6505
a(I10
F5.0
tp6506
a(I11
F5.0
tp6507
a(I12
F5.0
tp6508
a(I13
F5.0
tp6509
a(I14
F5.0
tp6510
a(I21
F5.0
tp6511
a(I22
F5.0
tp6512
aa(lp6513
(I55
F5.0
tp6514
a(I65
F5.0
tp6515
a(I68
F5.0
tp6516
a(I69
F5.0
tp6517
a(I82
F5.0
tp6518
a(I97
F5.0
tp6519
a(I99
F5.0
tp6520
a(I110
F5.0
tp6521
a(I125
F5.0
tp6522
a(I152
F5.0
tp6523
aa(lp6524
(I514
F5.0
tp6525
a(I13
F4.0
tp6526
a(I14
F4.0
tp6527
a(I99
F4.0
tp6528
a(I126
F4.0
tp6529
a(I198
F4.0
tp6530
a(I220
F4.0
tp6531
a(I221
F4.0
tp6532
a(I241
F4.0
tp6533
a(I268
F4.0
tp6534
aa(lp6535
(I13
F5.0
tp6536
a(I49
F5.0
tp6537
a(I126
F5.0
tp6538
a(I150
F5.0
tp6539
a(I180
F5.0
tp6540
a(I474
F5.0
tp6541
a(I507
F5.0
tp6542
a(I951
F5.0
tp6543
a(I1133
F5.0
tp6544
a(I1141
F5.0
tp6545
aa(lp6546
(I49
F5.0
tp6547
a(I312
F5.0
tp6548
a(I327
F5.0
tp6549
a(I180
F4.0
tp6550
a(I285
F4.0
tp6551
a(I287
F4.0
tp6552
a(I293
F4.0
tp6553
a(I294
F4.0
tp6554
a(I299
F4.0
tp6555
a(I322
F4.0
tp6556
aa(lp6557
(I14
F5.0
tp6558
a(I49
F5.0
tp6559
a(I282
F5.0
tp6560
a(I288
F5.0
tp6561
a(I292
F5.0
tp6562
a(I297
F5.0
tp6563
a(I299
F5.0
tp6564
a(I476
F5.0
tp6565
a(I747
F5.0
tp6566
a(I824
F5.0
tp6567
aa(lp6568
(I21
F5.0
tp6569
a(I257
F5.0
tp6570
a(I285
F5.0
tp6571
a(I311
F5.0
tp6572
a(I312
F5.0
tp6573
a(I749
F5.0
tp6574
a(I291
F4.0
tp6575
a(I299
F4.0
tp6576
a(I307
F4.0
tp6577
a(I322
F4.0
tp6578
aa(lp6579
(I110
F5.0
tp6580
a(I219
F5.0
tp6581
a(I236
F5.0
tp6582
a(I254
F5.0
tp6583
a(I273
F5.0
tp6584
a(I279
F5.0
tp6585
a(I281
F5.0
tp6586
a(I594
F5.0
tp6587
a(I755
F5.0
tp6588
a(I762
F5.0
tp6589
aa(lp6590
(I10
F5.0
tp6591
a(I21
F5.0
tp6592
a(I55
F5.0
tp6593
a(I81
F5.0
tp6594
a(I88
F5.0
tp6595
a(I95
F5.0
tp6596
a(I126
F5.0
tp6597
a(I175
F5.0
tp6598
a(I176
F5.0
tp6599
a(I182
F5.0
tp6600
aa(lp6601
(I49
F5.0
tp6602
a(I90
F5.0
tp6603
a(I131
F5.0
tp6604
a(I153
F5.0
tp6605
a(I167
F5.0
tp6606
a(I172
F5.0
tp6607
a(I178
F5.0
tp6608
a(I180
F5.0
tp6609
a(I200
F5.0
tp6610
a(I227
F5.0
tp6611
aa(lp6612
(I49
F5.0
tp6613
a(I116
F5.0
tp6614
a(I126
F5.0
tp6615
a(I180
F5.0
tp6616
a(I293
F5.0
tp6617
a(I0
F4.0
tp6618
a(I8
F4.0
tp6619
a(I120
F4.0
tp6620
a(I124
F4.0
tp6621
a(I147
F4.0
tp6622
aa(lp6623
(I6
F5.0
tp6624
a(I10
F5.0
tp6625
a(I11
F5.0
tp6626
a(I49
F5.0
tp6627
a(I88
F5.0
tp6628
a(I171
F5.0
tp6629
a(I180
F5.0
tp6630
a(I249
F5.0
tp6631
a(I312
F5.0
tp6632
a(I428
F5.0
tp6633
aa(lp6634
(I47
F5.0
tp6635
a(I99
F5.0
tp6636
a(I233
F5.0
tp6637
a(I447
F5.0
tp6638
a(I566
F5.0
tp6639
a(I669
F5.0
tp6640
a(I6
F4.0
tp6641
a(I126
F4.0
tp6642
a(I163
F4.0
tp6643
a(I446
F4.0
tp6644
aa(lp6645
(I13
F5.0
tp6646
a(I14
F5.0
tp6647
a(I63
F5.0
tp6648
a(I68
F5.0
tp6649
a(I78
F5.0
tp6650
a(I97
F5.0
tp6651
a(I99
F5.0
tp6652
a(I125
F5.0
tp6653
a(I126
F5.0
tp6654
a(I131
F5.0
tp6655
aa(lp6656
(I0
F5.0
tp6657
a(I2
F5.0
tp6658
a(I10
F5.0
tp6659
a(I14
F5.0
tp6660
a(I21
F5.0
tp6661
a(I23
F5.0
tp6662
a(I24
F5.0
tp6663
a(I49
F5.0
tp6664
a(I55
F5.0
tp6665
a(I63
F5.0
tp6666
aa(lp6667
(I55
F5.0
tp6668
a(I210
F5.0
tp6669
a(I481
F5.0
tp6670
a(I493
F5.0
tp6671
a(I510
F5.0
tp6672
a(I29
F4.0
tp6673
a(I44
F4.0
tp6674
a(I85
F4.0
tp6675
a(I99
F4.0
tp6676
a(I106
F4.0
tp6677
aa(lp6678
(I10
F5.0
tp6679
a(I22
F5.0
tp6680
a(I41
F5.0
tp6681
a(I55
F5.0
tp6682
a(I58
F5.0
tp6683
a(I60
F5.0
tp6684
a(I64
F5.0
tp6685
a(I78
F5.0
tp6686
a(I82
F5.0
tp6687
a(I85
F5.0
tp6688
aa(lp6689
(I14
F5.0
tp6690
a(I284
F5.0
tp6691
a(I286
F5.0
tp6692
a(I303
F5.0
tp6693
a(I312
F5.0
tp6694
a(I407
F5.0
tp6695
a(I876
F5.0
tp6696
a(I124
F4.0
tp6697
a(I749
F4.0
tp6698
a(I257
F3.0
tp6699
aa(lp6700
(I11
F5.0
tp6701
a(I50
F5.0
tp6702
a(I97
F5.0
tp6703
a(I126
F5.0
tp6704
a(I142
F5.0
tp6705
a(I152
F5.0
tp6706
a(I161
F5.0
tp6707
a(I184
F5.0
tp6708
a(I317
F5.0
tp6709
a(I377
F5.0
tp6710
aa(lp6711
(I267
F5.0
tp6712
a(I271
F5.0
tp6713
a(I285
F5.0
tp6714
a(I299
F5.0
tp6715
a(I301
F5.0
tp6716
a(I305
F5.0
tp6717
a(I314
F5.0
tp6718
a(I333
F5.0
tp6719
a(I335
F5.0
tp6720
a(I339
F5.0
tp6721
aa(lp6722
(I274
F5.0
tp6723
a(I923
F5.0
tp6724
a(I1062
F5.0
tp6725
a(I0
F4.0
tp6726
a(I14
F4.0
tp6727
a(I99
F4.0
tp6728
a(I116
F4.0
tp6729
a(I146
F4.0
tp6730
a(I299
F4.0
tp6731
a(I479
F4.0
tp6732
aa(lp6733
(I11
F5.0
tp6734
a(I49
F5.0
tp6735
a(I63
F5.0
tp6736
a(I88
F5.0
tp6737
a(I125
F5.0
tp6738
a(I175
F5.0
tp6739
a(I193
F5.0
tp6740
a(I257
F5.0
tp6741
a(I271
F5.0
tp6742
a(I296
F5.0
tp6743
aa(lp6744
(I0
F5.0
tp6745
a(I99
F5.0
tp6746
a(I146
F5.0
tp6747
a(I234
F5.0
tp6748
a(I254
F5.0
tp6749
a(I8
F4.0
tp6750
a(I120
F4.0
tp6751
a(I125
F4.0
tp6752
a(I275
F4.0
tp6753
a(I293
F4.0
tp6754
aa(lp6755
(I13
F5.0
tp6756
a(I22
F5.0
tp6757
a(I47
F5.0
tp6758
a(I85
F5.0
tp6759
a(I126
F5.0
tp6760
a(I167
F5.0
tp6761
a(I174
F5.0
tp6762
a(I177
F5.0
tp6763
a(I186
F5.0
tp6764
a(I190
F5.0
tp6765
aa(lp6766
(I271
F5.0
tp6767
a(I285
F5.0
tp6768
a(I301
F5.0
tp6769
a(I312
F5.0
tp6770
a(I749
F5.0
tp6771
a(I257
F4.0
tp6772
a(I268
F4.0
tp6773
a(I287
F4.0
tp6774
a(I288
F4.0
tp6775
a(I291
F4.0
tp6776
aa(lp6777
(I73
F5.0
tp6778
a(I184
F5.0
tp6779
a(I191
F5.0
tp6780
a(I199
F5.0
tp6781
a(I319
F5.0
tp6782
a(I88
F4.0
tp6783
a(I99
F4.0
tp6784
a(I174
F4.0
tp6785
a(I178
F4.0
tp6786
a(I182
F4.0
tp6787
aa(lp6788
(I22
F5.0
tp6789
a(I49
F5.0
tp6790
a(I78
F5.0
tp6791
a(I96
F5.0
tp6792
a(I97
F5.0
tp6793
a(I116
F5.0
tp6794
a(I126
F5.0
tp6795
a(I167
F5.0
tp6796
a(I171
F5.0
tp6797
a(I173
F5.0
tp6798
aa(lp6799
(I21
F5.0
tp6800
a(I78
F5.0
tp6801
a(I81
F5.0
tp6802
a(I95
F5.0
tp6803
a(I116
F5.0
tp6804
a(I117
F5.0
tp6805
a(I120
F5.0
tp6806
a(I143
F5.0
tp6807
a(I175
F5.0
tp6808
a(I182
F5.0
tp6809
aa(lp6810
(I0
F5.0
tp6811
a(I14
F5.0
tp6812
a(I62
F5.0
tp6813
a(I70
F5.0
tp6814
a(I81
F5.0
tp6815
a(I93
F5.0
tp6816
a(I120
F5.0
tp6817
a(I137
F5.0
tp6818
a(I144
F5.0
tp6819
a(I163
F5.0
tp6820
aa(lp6821
(I2
F5.0
tp6822
a(I7
F5.0
tp6823
a(I49
F5.0
tp6824
a(I54
F5.0
tp6825
a(I72
F5.0
tp6826
a(I78
F5.0
tp6827
a(I81
F5.0
tp6828
a(I86
F5.0
tp6829
a(I95
F5.0
tp6830
a(I99
F5.0
tp6831
aa(lp6832
(I6
F5.0
tp6833
a(I11
F5.0
tp6834
a(I49
F5.0
tp6835
a(I55
F5.0
tp6836
a(I63
F5.0
tp6837
a(I78
F5.0
tp6838
a(I82
F5.0
tp6839
a(I88
F5.0
tp6840
a(I95
F5.0
tp6841
a(I97
F5.0
tp6842
aa(lp6843
(I49
F5.0
tp6844
a(I78
F5.0
tp6845
a(I180
F5.0
tp6846
a(I193
F5.0
tp6847
a(I203
F5.0
tp6848
a(I209
F5.0
tp6849
a(I274
F5.0
tp6850
a(I434
F5.0
tp6851
a(I482
F5.0
tp6852
a(I647
F5.0
tp6853
aa(lp6854
(I13
F5.0
tp6855
a(I49
F5.0
tp6856
a(I92
F5.0
tp6857
a(I99
F5.0
tp6858
a(I271
F5.0
tp6859
a(I275
F5.0
tp6860
a(I284
F5.0
tp6861
a(I285
F5.0
tp6862
a(I312
F5.0
tp6863
a(I0
F4.0
tp6864
aa(lp6865
(I49
F5.0
tp6866
a(I95
F5.0
tp6867
a(I134
F5.0
tp6868
a(I168
F5.0
tp6869
a(I196
F5.0
tp6870
a(I427
F5.0
tp6871
a(I482
F5.0
tp6872
a(I3
F4.0
tp6873
a(I22
F4.0
tp6874
a(I90
F4.0
tp6875
aa(lp6876
(I271
F5.0
tp6877
a(I285
F5.0
tp6878
a(I312
F5.0
tp6879
a(I922
F5.0
tp6880
a(I257
F4.0
tp6881
a(I267
F4.0
tp6882
a(I301
F4.0
tp6883
a(I323
F4.0
tp6884
a(I326
F4.0
tp6885
a(I287
F3.0
tp6886
aa(lp6887
(I6
F5.0
tp6888
a(I21
F5.0
tp6889
a(I50
F5.0
tp6890
a(I57
F5.0
tp6891
a(I63
F5.0
tp6892
a(I88
F5.0
tp6893
a(I99
F5.0
tp6894
a(I175
F5.0
tp6895
a(I176
F5.0
tp6896
a(I178
F5.0
tp6897
aa(lp6898
(I241
F5.0
tp6899
a(I257
F5.0
tp6900
a(I269
F5.0
tp6901
a(I287
F5.0
tp6902
a(I291
F5.0
tp6903
a(I299
F5.0
tp6904
a(I301
F5.0
tp6905
a(I304
F5.0
tp6906
a(I325
F5.0
tp6907
a(I329
F5.0
tp6908
aa(lp6909
(I11
F5.0
tp6910
a(I14
F5.0
tp6911
a(I21
F5.0
tp6912
a(I22
F5.0
tp6913
a(I49
F5.0
tp6914
a(I55
F5.0
tp6915
a(I63
F5.0
tp6916
a(I68
F5.0
tp6917
a(I85
F5.0
tp6918
a(I86
F5.0
tp6919
aa(lp6920
(I10
F5.0
tp6921
a(I63
F5.0
tp6922
a(I97
F5.0
tp6923
a(I110
F5.0
tp6924
a(I116
F5.0
tp6925
a(I215
F5.0
tp6926
a(I236
F5.0
tp6927
a(I254
F5.0
tp6928
a(I271
F5.0
tp6929
a(I272
F5.0
tp6930
aa(lp6931
(I271
F4.0
tp6932
a(I288
F4.0
tp6933
a(I300
F4.0
tp6934
a(I306
F4.0
tp6935
a(I309
F4.0
tp6936
a(I312
F4.0
tp6937
a(I314
F4.0
tp6938
a(I345
F4.0
tp6939
a(I885
F4.0
tp6940
a(I285
F3.0
tp6941
aa(lp6942
(I11
F5.0
tp6943
a(I49
F5.0
tp6944
a(I63
F5.0
tp6945
a(I78
F5.0
tp6946
a(I80
F5.0
tp6947
a(I94
F5.0
tp6948
a(I95
F5.0
tp6949
a(I98
F5.0
tp6950
a(I131
F5.0
tp6951
a(I133
F5.0
tp6952
aa(lp6953
(I78
F5.0
tp6954
a(I27
F4.0
tp6955
a(I49
F4.0
tp6956
a(I81
F4.0
tp6957
a(I93
F4.0
tp6958
a(I95
F4.0
tp6959
a(I97
F4.0
tp6960
a(I142
F4.0
tp6961
a(I146
F4.0
tp6962
a(I158
F4.0
tp6963
aa(lp6964
(I8
F5.0
tp6965
a(I92
F5.0
tp6966
a(I120
F5.0
tp6967
a(I126
F5.0
tp6968
a(I236
F5.0
tp6969
a(I271
F5.0
tp6970
a(I275
F5.0
tp6971
a(I285
F5.0
tp6972
a(I301
F5.0
tp6973
a(I312
F5.0
tp6974
aa(lp6975
(I245
F5.0
tp6976
a(I261
F5.0
tp6977
a(I267
F5.0
tp6978
a(I268
F5.0
tp6979
a(I326
F5.0
tp6980
a(I332
F5.0
tp6981
a(I0
F4.0
tp6982
a(I254
F4.0
tp6983
a(I301
F4.0
tp6984
a(I306
F4.0
tp6985
aa(lp6986
(I9
F5.0
tp6987
a(I14
F5.0
tp6988
a(I24
F5.0
tp6989
a(I99
F5.0
tp6990
a(I117
F5.0
tp6991
a(I120
F5.0
tp6992
a(I221
F5.0
tp6993
a(I257
F5.0
tp6994
a(I271
F5.0
tp6995
a(I312
F5.0
tp6996
aa(lp6997
(I150
F5.0
tp6998
a(I273
F5.0
tp6999
a(I285
F5.0
tp7000
a(I407
F5.0
tp7001
a(I689
F5.0
tp7002
a(I1232
F5.0
tp7003
a(I0
F4.0
tp7004
a(I14
F4.0
tp7005
a(I24
F4.0
tp7006
a(I49
F4.0
tp7007
aa(lp7008
(I21
F5.0
tp7009
a(I143
F5.0
tp7010
a(I173
F5.0
tp7011
a(I180
F5.0
tp7012
a(I184
F5.0
tp7013
a(I185
F5.0
tp7014
a(I203
F5.0
tp7015
a(I225
F5.0
tp7016
a(I229
F5.0
tp7017
a(I264
F5.0
tp7018
aa(lp7019
(I13
F5.0
tp7020
a(I177
F5.0
tp7021
a(I212
F5.0
tp7022
a(I461
F5.0
tp7023
a(I482
F5.0
tp7024
a(I486
F5.0
tp7025
a(I614
F5.0
tp7026
a(I693
F5.0
tp7027
a(I706
F5.0
tp7028
a(I777
F5.0
tp7029
aa(lp7030
(I11
F5.0
tp7031
a(I41
F5.0
tp7032
a(I54
F5.0
tp7033
a(I55
F5.0
tp7034
a(I63
F5.0
tp7035
a(I78
F5.0
tp7036
a(I80
F5.0
tp7037
a(I84
F5.0
tp7038
a(I95
F5.0
tp7039
a(I133
F5.0
tp7040
aa(lp7041
(I22
F5.0
tp7042
a(I133
F5.0
tp7043
a(I197
F5.0
tp7044
a(I241
F5.0
tp7045
a(I284
F5.0
tp7046
a(I304
F5.0
tp7047
a(I431
F5.0
tp7048
a(I482
F5.0
tp7049
a(I483
F5.0
tp7050
a(I496
F5.0
tp7051
aa(lp7052
(I0
F5.0
tp7053
a(I7
F5.0
tp7054
a(I14
F5.0
tp7055
a(I20
F5.0
tp7056
a(I27
F5.0
tp7057
a(I28
F5.0
tp7058
a(I49
F5.0
tp7059
a(I50
F5.0
tp7060
a(I63
F5.0
tp7061
a(I65
F5.0
tp7062
aa(lp7063
(I0
F5.0
tp7064
a(I11
F5.0
tp7065
a(I22
F5.0
tp7066
a(I55
F5.0
tp7067
a(I86
F5.0
tp7068
a(I95
F5.0
tp7069
a(I99
F5.0
tp7070
a(I126
F5.0
tp7071
a(I128
F5.0
tp7072
a(I131
F5.0
tp7073
aa(lp7074
(I120
F5.0
tp7075
a(I256
F5.0
tp7076
a(I299
F5.0
tp7077
a(I321
F5.0
tp7078
a(I325
F5.0
tp7079
a(I49
F4.0
tp7080
a(I99
F4.0
tp7081
a(I116
F4.0
tp7082
a(I124
F4.0
tp7083
a(I126
F4.0
tp7084
aa(lp7085
(I22
F5.0
tp7086
a(I31
F5.0
tp7087
a(I45
F5.0
tp7088
a(I58
F5.0
tp7089
a(I59
F5.0
tp7090
a(I60
F5.0
tp7091
a(I133
F5.0
tp7092
a(I134
F5.0
tp7093
a(I174
F5.0
tp7094
a(I178
F5.0
tp7095
aa(lp7096
(I312
F5.0
tp7097
a(I271
F4.0
tp7098
a(I314
F4.0
tp7099
a(I1021
F4.0
tp7100
a(I1175
F4.0
tp7101
a(I257
F3.0
tp7102
a(I258
F3.0
tp7103
a(I285
F3.0
tp7104
a(I287
F3.0
tp7105
a(I299
F3.0
tp7106
aa(lp7107
(I21
F5.0
tp7108
a(I72
F5.0
tp7109
a(I135
F5.0
tp7110
a(I172
F5.0
tp7111
a(I176
F5.0
tp7112
a(I196
F5.0
tp7113
a(I356
F5.0
tp7114
a(I14
F4.0
tp7115
a(I28
F4.0
tp7116
a(I70
F4.0
tp7117
aa(lp7118
(I0
F5.0
tp7119
a(I27
F5.0
tp7120
a(I37
F5.0
tp7121
a(I49
F5.0
tp7122
a(I61
F5.0
tp7123
a(I65
F5.0
tp7124
a(I78
F5.0
tp7125
a(I81
F5.0
tp7126
a(I93
F5.0
tp7127
a(I95
F5.0
tp7128
aa(lp7129
(I0
F5.0
tp7130
a(I116
F5.0
tp7131
a(I126
F5.0
tp7132
a(I256
F5.0
tp7133
a(I290
F5.0
tp7134
a(I470
F5.0
tp7135
a(I14
F4.0
tp7136
a(I23
F4.0
tp7137
a(I49
F4.0
tp7138
a(I146
F4.0
tp7139
aa(lp7140
(I49
F5.0
tp7141
a(I133
F5.0
tp7142
a(I142
F5.0
tp7143
a(I172
F5.0
tp7144
a(I207
F5.0
tp7145
a(I442
F5.0
tp7146
a(I478
F5.0
tp7147
a(I479
F5.0
tp7148
a(I482
F5.0
tp7149
a(I483
F5.0
tp7150
aa(lp7151
(I241
F5.0
tp7152
a(I268
F5.0
tp7153
a(I301
F5.0
tp7154
a(I305
F5.0
tp7155
a(I514
F5.0
tp7156
a(I126
F4.0
tp7157
a(I275
F4.0
tp7158
a(I284
F4.0
tp7159
a(I285
F4.0
tp7160
a(I326
F4.0
tp7161
aa(lp7162
(I698
F5.0
tp7163
a(I95
F4.0
tp7164
a(I244
F4.0
tp7165
a(I274
F4.0
tp7166
a(I281
F4.0
tp7167
a(I299
F4.0
tp7168
a(I306
F4.0
tp7169
a(I327
F4.0
tp7170
a(I332
F4.0
tp7171
a(I537
F4.0
tp7172
aa(lp7173
(I21
F5.0
tp7174
a(I49
F5.0
tp7175
a(I55
F5.0
tp7176
a(I82
F5.0
tp7177
a(I88
F5.0
tp7178
a(I126
F5.0
tp7179
a(I134
F5.0
tp7180
a(I156
F5.0
tp7181
a(I173
F5.0
tp7182
a(I179
F5.0
tp7183
aa(lp7184
(I7
F5.0
tp7185
a(I11
F5.0
tp7186
a(I21
F5.0
tp7187
a(I27
F5.0
tp7188
a(I49
F5.0
tp7189
a(I78
F5.0
tp7190
a(I81
F5.0
tp7191
a(I82
F5.0
tp7192
a(I97
F5.0
tp7193
a(I113
F5.0
tp7194
aa(lp7195
(I29
F5.0
tp7196
a(I78
F5.0
tp7197
a(I126
F5.0
tp7198
a(I186
F5.0
tp7199
a(I261
F5.0
tp7200
a(I319
F5.0
tp7201
a(I503
F5.0
tp7202
a(I513
F5.0
tp7203
a(I527
F5.0
tp7204
a(I903
F5.0
tp7205
aa(lp7206
(I895
F5.0
tp7207
a(I302
F4.0
tp7208
a(I343
F4.0
tp7209
a(I346
F4.0
tp7210
a(I268
F3.0
tp7211
a(I269
F3.0
tp7212
a(I271
F3.0
tp7213
a(I300
F3.0
tp7214
a(I301
F3.0
tp7215
a(I315
F3.0
tp7216
aa(lp7217
(I110
F5.0
tp7218
a(I268
F5.0
tp7219
a(I293
F5.0
tp7220
a(I8
F4.0
tp7221
a(I116
F4.0
tp7222
a(I150
F4.0
tp7223
a(I285
F4.0
tp7224
a(I339
F4.0
tp7225
a(I345
F4.0
tp7226
a(I474
F4.0
tp7227
aa(lp7228
(I7
F5.0
tp7229
a(I44
F5.0
tp7230
a(I55
F5.0
tp7231
a(I126
F5.0
tp7232
a(I150
F5.0
tp7233
a(I168
F5.0
tp7234
a(I177
F5.0
tp7235
a(I181
F5.0
tp7236
a(I197
F5.0
tp7237
a(I407
F5.0
tp7238
aa(lp7239
(I22
F5.0
tp7240
a(I55
F5.0
tp7241
a(I85
F5.0
tp7242
a(I96
F5.0
tp7243
a(I126
F5.0
tp7244
a(I135
F5.0
tp7245
a(I142
F5.0
tp7246
a(I174
F5.0
tp7247
a(I176
F5.0
tp7248
a(I177
F5.0
tp7249
aa(lp7250
(I150
F5.0
tp7251
a(I167
F5.0
tp7252
a(I172
F5.0
tp7253
a(I21
F4.0
tp7254
a(I49
F4.0
tp7255
a(I67
F4.0
tp7256
a(I90
F4.0
tp7257
a(I97
F4.0
tp7258
a(I133
F4.0
tp7259
a(I134
F4.0
tp7260
aa(lp7261
(I0
F5.0
tp7262
a(I7
F5.0
tp7263
a(I27
F5.0
tp7264
a(I49
F5.0
tp7265
a(I78
F5.0
tp7266
a(I88
F5.0
tp7267
a(I94
F5.0
tp7268
a(I131
F5.0
tp7269
a(I134
F5.0
tp7270
a(I143
F5.0
tp7271
aa(lp7272
(I5
F5.0
tp7273
a(I92
F5.0
tp7274
a(I99
F5.0
tp7275
a(I245
F5.0
tp7276
a(I267
F5.0
tp7277
a(I284
F5.0
tp7278
a(I1380
F5.0
tp7279
a(I9
F4.0
tp7280
a(I12
F4.0
tp7281
a(I274
F4.0
tp7282
aa(lp7283
(I10
F5.0
tp7284
a(I11
F5.0
tp7285
a(I41
F5.0
tp7286
a(I49
F5.0
tp7287
a(I55
F5.0
tp7288
a(I63
F5.0
tp7289
a(I95
F5.0
tp7290
a(I97
F5.0
tp7291
a(I126
F5.0
tp7292
a(I133
F5.0
tp7293
aa(lp7294
(I11
F5.0
tp7295
a(I49
F5.0
tp7296
a(I51
F5.0
tp7297
a(I80
F5.0
tp7298
a(I88
F5.0
tp7299
a(I99
F5.0
tp7300
a(I126
F5.0
tp7301
a(I133
F5.0
tp7302
a(I153
F5.0
tp7303
a(I168
F5.0
tp7304
aa(lp7305
(I55
F5.0
tp7306
a(I68
F5.0
tp7307
a(I155
F5.0
tp7308
a(I239
F5.0
tp7309
a(I248
F5.0
tp7310
a(I426
F5.0
tp7311
a(I0
F4.0
tp7312
a(I6
F4.0
tp7313
a(I8
F4.0
tp7314
a(I11
F4.0
tp7315
aa(lp7316
(I3
F5.0
tp7317
a(I126
F5.0
tp7318
a(I133
F5.0
tp7319
a(I178
F5.0
tp7320
a(I182
F5.0
tp7321
a(I186
F5.0
tp7322
a(I187
F5.0
tp7323
a(I198
F5.0
tp7324
a(I199
F5.0
tp7325
a(I201
F5.0
tp7326
aa(lp7327
(I8
F5.0
tp7328
a(I27
F5.0
tp7329
a(I85
F5.0
tp7330
a(I123
F5.0
tp7331
a(I130
F5.0
tp7332
a(I181
F5.0
tp7333
a(I191
F5.0
tp7334
a(I195
F5.0
tp7335
a(I222
F5.0
tp7336
a(I268
F5.0
tp7337
aa(lp7338
(I49
F5.0
tp7339
a(I209
F5.0
tp7340
a(I268
F5.0
tp7341
a(I271
F5.0
tp7342
a(I282
F5.0
tp7343
a(I301
F5.0
tp7344
a(I366
F5.0
tp7345
a(I537
F5.0
tp7346
a(I12
F4.0
tp7347
a(I81
F4.0
tp7348
aa(lp7349
(I0
F5.0
tp7350
a(I11
F5.0
tp7351
a(I49
F5.0
tp7352
a(I113
F5.0
tp7353
a(I126
F5.0
tp7354
a(I150
F5.0
tp7355
a(I180
F5.0
tp7356
a(I186
F5.0
tp7357
a(I191
F5.0
tp7358
a(I407
F5.0
tp7359
aa(lp7360
(I95
F5.0
tp7361
a(I227
F5.0
tp7362
a(I478
F5.0
tp7363
a(I479
F5.0
tp7364
a(I481
F5.0
tp7365
a(I482
F5.0
tp7366
a(I483
F5.0
tp7367
a(I484
F5.0
tp7368
a(I518
F5.0
tp7369
a(I602
F5.0
tp7370
aa(lp7371
(I3
F5.0
tp7372
a(I6
F5.0
tp7373
a(I11
F5.0
tp7374
a(I32
F5.0
tp7375
a(I37
F5.0
tp7376
a(I49
F5.0
tp7377
a(I61
F5.0
tp7378
a(I65
F5.0
tp7379
a(I88
F5.0
tp7380
a(I95
F5.0
tp7381
aa(lp7382
(I24
F5.0
tp7383
a(I274
F5.0
tp7384
a(I475
F5.0
tp7385
a(I514
F5.0
tp7386
a(I108
F4.0
tp7387
a(I126
F4.0
tp7388
a(I283
F4.0
tp7389
a(I300
F4.0
tp7390
a(I320
F4.0
tp7391
a(I814
F4.0
tp7392
aa(lp7393
(I78
F5.0
tp7394
a(I271
F5.0
tp7395
a(I302
F5.0
tp7396
a(I309
F5.0
tp7397
a(I314
F5.0
tp7398
a(I339
F5.0
tp7399
a(I343
F5.0
tp7400
a(I527
F5.0
tp7401
a(I749
F5.0
tp7402
a(I895
F5.0
tp7403
aa(lp7404
(I110
F5.0
tp7405
a(I116
F5.0
tp7406
a(I124
F5.0
tp7407
a(I126
F5.0
tp7408
a(I281
F5.0
tp7409
a(I312
F5.0
tp7410
a(I741
F5.0
tp7411
a(I762
F5.0
tp7412
a(I865
F5.0
tp7413
a(I0
F4.0
tp7414
aa(lp7415
(I268
F5.0
tp7416
a(I302
F5.0
tp7417
a(I305
F5.0
tp7418
a(I317
F5.0
tp7419
a(I426
F5.0
tp7420
a(I462
F5.0
tp7421
a(I508
F5.0
tp7422
a(I530
F5.0
tp7423
a(I649
F5.0
tp7424
a(I895
F5.0
tp7425
aa(lp7426
(I0
F5.0
tp7427
a(I21
F5.0
tp7428
a(I49
F5.0
tp7429
a(I63
F5.0
tp7430
a(I99
F5.0
tp7431
a(I113
F5.0
tp7432
a(I131
F5.0
tp7433
a(I167
F5.0
tp7434
a(I168
F5.0
tp7435
a(I171
F5.0
tp7436
aa(lp7437
(I90
F5.0
tp7438
a(I100
F5.0
tp7439
a(I128
F5.0
tp7440
a(I239
F5.0
tp7441
a(I244
F5.0
tp7442
a(I267
F5.0
tp7443
a(I287
F5.0
tp7444
a(I293
F5.0
tp7445
a(I299
F5.0
tp7446
a(I306
F5.0
tp7447
aa(lp7448
(I0
F5.0
tp7449
a(I99
F5.0
tp7450
a(I126
F5.0
tp7451
a(I275
F5.0
tp7452
a(I6
F4.0
tp7453
a(I49
F4.0
tp7454
a(I110
F4.0
tp7455
a(I116
F4.0
tp7456
a(I146
F4.0
tp7457
a(I299
F4.0
tp7458
aa(lp7459
(I27
F5.0
tp7460
a(I49
F5.0
tp7461
a(I82
F5.0
tp7462
a(I167
F5.0
tp7463
a(I171
F5.0
tp7464
a(I172
F5.0
tp7465
a(I180
F5.0
tp7466
a(I222
F5.0
tp7467
a(I285
F5.0
tp7468
a(I317
F5.0
tp7469
aa(lp7470
(I6
F5.0
tp7471
a(I13
F5.0
tp7472
a(I49
F5.0
tp7473
a(I149
F5.0
tp7474
a(I150
F5.0
tp7475
a(I168
F5.0
tp7476
a(I275
F5.0
tp7477
a(I284
F5.0
tp7478
a(I317
F5.0
tp7479
a(I407
F5.0
tp7480
aa(lp7481
(I285
F5.0
tp7482
a(I288
F5.0
tp7483
a(I293
F5.0
tp7484
a(I749
F5.0
tp7485
a(I1393
F5.0
tp7486
a(I291
F4.0
tp7487
a(I538
F4.0
tp7488
a(I689
F4.0
tp7489
a(I897
F4.0
tp7490
a(I989
F4.0
tp7491
aa(lp7492
(I11
F5.0
tp7493
a(I21
F5.0
tp7494
a(I41
F5.0
tp7495
a(I49
F5.0
tp7496
a(I50
F5.0
tp7497
a(I63
F5.0
tp7498
a(I67
F5.0
tp7499
a(I70
F5.0
tp7500
a(I72
F5.0
tp7501
a(I86
F5.0
tp7502
aa(lp7503
(I55
F5.0
tp7504
a(I131
F5.0
tp7505
a(I132
F5.0
tp7506
a(I186
F5.0
tp7507
a(I301
F5.0
tp7508
a(I320
F5.0
tp7509
a(I510
F5.0
tp7510
a(I512
F5.0
tp7511
a(I606
F5.0
tp7512
a(I21
F4.0
tp7513
aa(lp7514
(I7
F5.0
tp7515
a(I14
F5.0
tp7516
a(I81
F5.0
tp7517
a(I82
F5.0
tp7518
a(I171
F5.0
tp7519
a(I214
F5.0
tp7520
a(I236
F5.0
tp7521
a(I407
F5.0
tp7522
a(I476
F5.0
tp7523
a(I482
F5.0
tp7524
aa(lp7525
(I268
F3.0
tp7526
a(I301
F3.0
tp7527
a(I323
F3.0
tp7528
a(I324
F3.0
tp7529
a(I874
F3.0
tp7530
a(I881
F3.0
tp7531
a(I287
F2.0
tp7532
a(I288
F2.0
tp7533
a(I298
F2.0
tp7534
a(I318
F2.0
tp7535
aa(lp7536
(I11
F5.0
tp7537
a(I21
F5.0
tp7538
a(I22
F5.0
tp7539
a(I25
F5.0
tp7540
a(I47
F5.0
tp7541
a(I55
F5.0
tp7542
a(I63
F5.0
tp7543
a(I97
F5.0
tp7544
a(I98
F5.0
tp7545
a(I126
F5.0
tp7546
aa(lp7547
(I267
F5.0
tp7548
a(I312
F5.0
tp7549
a(I268
F4.0
tp7550
a(I287
F4.0
tp7551
a(I299
F4.0
tp7552
a(I318
F4.0
tp7553
a(I320
F4.0
tp7554
a(I339
F4.0
tp7555
a(I677
F4.0
tp7556
a(I748
F4.0
tp7557
aa(lp7558
(I258
F5.0
tp7559
a(I287
F5.0
tp7560
a(I301
F5.0
tp7561
a(I303
F5.0
tp7562
a(I308
F5.0
tp7563
a(I325
F5.0
tp7564
a(I328
F5.0
tp7565
a(I331
F5.0
tp7566
a(I337
F5.0
tp7567
a(I338
F5.0
tp7568
aa(lp7569
(I6
F5.0
tp7570
a(I14
F5.0
tp7571
a(I49
F5.0
tp7572
a(I108
F5.0
tp7573
a(I120
F5.0
tp7574
a(I180
F5.0
tp7575
a(I221
F5.0
tp7576
a(I249
F5.0
tp7577
a(I256
F5.0
tp7578
a(I257
F5.0
tp7579
aa(lp7580
(I63
F5.0
tp7581
a(I68
F5.0
tp7582
a(I97
F5.0
tp7583
a(I152
F5.0
tp7584
a(I207
F5.0
tp7585
a(I217
F5.0
tp7586
a(I237
F5.0
tp7587
a(I356
F5.0
tp7588
a(I434
F5.0
tp7589
a(I0
F4.0
tp7590
aa(lp7591
(I0
F5.0
tp7592
a(I63
F5.0
tp7593
a(I78
F5.0
tp7594
a(I169
F5.0
tp7595
a(I177
F5.0
tp7596
a(I181
F5.0
tp7597
a(I184
F5.0
tp7598
a(I204
F5.0
tp7599
a(I317
F5.0
tp7600
a(I495
F5.0
tp7601
aa(lp7602
(I203
F5.0
tp7603
a(I409
F5.0
tp7604
a(I0
F4.0
tp7605
a(I24
F4.0
tp7606
a(I99
F4.0
tp7607
a(I193
F4.0
tp7608
a(I207
F4.0
tp7609
a(I210
F4.0
tp7610
a(I237
F4.0
tp7611
a(I256
F4.0
tp7612
aa(lp7613
(I47
F5.0
tp7614
a(I96
F5.0
tp7615
a(I177
F5.0
tp7616
a(I184
F5.0
tp7617
a(I312
F5.0
tp7618
a(I356
F5.0
tp7619
a(I503
F5.0
tp7620
a(I520
F5.0
tp7621
a(I631
F5.0
tp7622
a(I6
F4.0
tp7623
aa(lp7624
(I8
F5.0
tp7625
a(I21
F5.0
tp7626
a(I49
F5.0
tp7627
a(I68
F5.0
tp7628
a(I81
F5.0
tp7629
a(I96
F5.0
tp7630
a(I97
F5.0
tp7631
a(I120
F5.0
tp7632
a(I126
F5.0
tp7633
a(I130
F5.0
tp7634
aa(lp7635
(I241
F5.0
tp7636
a(I267
F5.0
tp7637
a(I318
F5.0
tp7638
a(I345
F5.0
tp7639
a(I357
F5.0
tp7640
a(I990
F5.0
tp7641
a(I1023
F5.0
tp7642
a(I259
F4.0
tp7643
a(I269
F4.0
tp7644
a(I287
F4.0
tp7645
aa(lp7646
(I8
F5.0
tp7647
a(I123
F5.0
tp7648
a(I285
F5.0
tp7649
a(I301
F5.0
tp7650
a(I306
F5.0
tp7651
a(I310
F5.0
tp7652
a(I314
F5.0
tp7653
a(I343
F5.0
tp7654
a(I426
F5.0
tp7655
a(I519
F5.0
tp7656
aa(lp7657
(I0
F5.0
tp7658
a(I6
F5.0
tp7659
a(I49
F5.0
tp7660
a(I106
F5.0
tp7661
a(I122
F5.0
tp7662
a(I123
F5.0
tp7663
a(I125
F5.0
tp7664
a(I126
F5.0
tp7665
a(I128
F5.0
tp7666
a(I149
F5.0
tp7667
aa(lp7668
(I49
F5.0
tp7669
a(I82
F5.0
tp7670
a(I171
F5.0
tp7671
a(I172
F5.0
tp7672
a(I189
F5.0
tp7673
a(I209
F5.0
tp7674
a(I528
F5.0
tp7675
a(I612
F5.0
tp7676
a(I0
F4.0
tp7677
a(I9
F4.0
tp7678
aa(lp7679
(I257
F5.0
tp7680
a(I324
F5.0
tp7681
a(I1162
F5.0
tp7682
a(I9
F4.0
tp7683
a(I12
F4.0
tp7684
a(I18
F4.0
tp7685
a(I19
F4.0
tp7686
a(I22
F4.0
tp7687
a(I69
F4.0
tp7688
a(I97
F4.0
tp7689
aa(lp7690
(I49
F5.0
tp7691
a(I172
F5.0
tp7692
a(I180
F5.0
tp7693
a(I47
F4.0
tp7694
a(I95
F4.0
tp7695
a(I143
F4.0
tp7696
a(I173
F4.0
tp7697
a(I317
F4.0
tp7698
a(I422
F4.0
tp7699
a(I530
F4.0
tp7700
aa(lp7701
(I18
F5.0
tp7702
a(I49
F5.0
tp7703
a(I99
F5.0
tp7704
a(I123
F5.0
tp7705
a(I236
F5.0
tp7706
a(I268
F5.0
tp7707
a(I271
F5.0
tp7708
a(I274
F5.0
tp7709
a(I284
F5.0
tp7710
a(I310
F5.0
tp7711
aa(lp7712
(I221
F5.0
tp7713
a(I227
F5.0
tp7714
a(I257
F5.0
tp7715
a(I312
F5.0
tp7716
a(I226
F4.0
tp7717
a(I228
F4.0
tp7718
a(I229
F4.0
tp7719
a(I379
F4.0
tp7720
a(I537
F4.0
tp7721
a(I750
F4.0
tp7722
aa(lp7723
(I14
F5.0
tp7724
a(I49
F5.0
tp7725
a(I117
F5.0
tp7726
a(I120
F5.0
tp7727
a(I126
F5.0
tp7728
a(I180
F5.0
tp7729
a(I236
F5.0
tp7730
a(I256
F5.0
tp7731
a(I0
F4.0
tp7732
a(I6
F4.0
tp7733
aa(lp7734
(I49
F5.0
tp7735
a(I88
F5.0
tp7736
a(I97
F5.0
tp7737
a(I130
F5.0
tp7738
a(I133
F5.0
tp7739
a(I134
F5.0
tp7740
a(I177
F5.0
tp7741
a(I192
F5.0
tp7742
a(I196
F5.0
tp7743
a(I204
F5.0
tp7744
aa(lp7745
(I0
F5.0
tp7746
a(I21
F5.0
tp7747
a(I28
F5.0
tp7748
a(I37
F5.0
tp7749
a(I61
F5.0
tp7750
a(I63
F5.0
tp7751
a(I70
F5.0
tp7752
a(I78
F5.0
tp7753
a(I81
F5.0
tp7754
a(I95
F5.0
tp7755
aa(lp7756
(I49
F5.0
tp7757
a(I124
F5.0
tp7758
a(I330
F5.0
tp7759
a(I0
F4.0
tp7760
a(I24
F4.0
tp7761
a(I116
F4.0
tp7762
a(I147
F4.0
tp7763
a(I180
F4.0
tp7764
a(I236
F4.0
tp7765
a(I257
F4.0
tp7766
aa(lp7767
(I7
F5.0
tp7768
a(I8
F5.0
tp7769
a(I9
F5.0
tp7770
a(I92
F5.0
tp7771
a(I99
F5.0
tp7772
a(I115
F5.0
tp7773
a(I136
F5.0
tp7774
a(I159
F5.0
tp7775
a(I161
F5.0
tp7776
a(I169
F5.0
tp7777
aa(lp7778
(I0
F5.0
tp7779
a(I49
F5.0
tp7780
a(I117
F5.0
tp7781
a(I180
F5.0
tp7782
a(I221
F5.0
tp7783
a(I236
F5.0
tp7784
a(I254
F5.0
tp7785
a(I257
F5.0
tp7786
a(I283
F5.0
tp7787
a(I312
F5.0
tp7788
aa(lp7789
(I10
F5.0
tp7790
a(I21
F5.0
tp7791
a(I27
F5.0
tp7792
a(I49
F5.0
tp7793
a(I55
F5.0
tp7794
a(I63
F5.0
tp7795
a(I67
F5.0
tp7796
a(I68
F5.0
tp7797
a(I95
F5.0
tp7798
a(I96
F5.0
tp7799
aa(lp7800
(I22
F5.0
tp7801
a(I55
F5.0
tp7802
a(I126
F5.0
tp7803
a(I133
F5.0
tp7804
a(I134
F5.0
tp7805
a(I186
F5.0
tp7806
a(I191
F5.0
tp7807
a(I431
F5.0
tp7808
a(I478
F5.0
tp7809
a(I482
F5.0
tp7810
aa(lp7811
(I7
F5.0
tp7812
a(I9
F5.0
tp7813
a(I15
F5.0
tp7814
a(I51
F5.0
tp7815
a(I69
F5.0
tp7816
a(I82
F5.0
tp7817
a(I85
F5.0
tp7818
a(I87
F5.0
tp7819
a(I88
F5.0
tp7820
a(I97
F5.0
tp7821
aa(lp7822
(I39
F5.0
tp7823
a(I65
F5.0
tp7824
a(I70
F5.0
tp7825
a(I72
F5.0
tp7826
a(I81
F5.0
tp7827
a(I95
F5.0
tp7828
a(I96
F5.0
tp7829
a(I109
F5.0
tp7830
a(I142
F5.0
tp7831
a(I171
F5.0
tp7832
aa(lp7833
(I343
F5.0
tp7834
a(I268
F4.0
tp7835
a(I271
F4.0
tp7836
a(I301
F4.0
tp7837
a(I309
F4.0
tp7838
a(I314
F4.0
tp7839
a(I346
F4.0
tp7840
a(I285
F3.0
tp7841
a(I306
F3.0
tp7842
a(I310
F3.0
tp7843
aa(lp7844
(I2
F5.0
tp7845
a(I49
F5.0
tp7846
a(I116
F5.0
tp7847
a(I117
F5.0
tp7848
a(I180
F5.0
tp7849
a(I249
F5.0
tp7850
a(I299
F5.0
tp7851
a(I404
F5.0
tp7852
a(I747
F5.0
tp7853
a(I1015
F5.0
tp7854
aa(lp7855
(I0
F5.0
tp7856
a(I27
F5.0
tp7857
a(I41
F5.0
tp7858
a(I49
F5.0
tp7859
a(I55
F5.0
tp7860
a(I63
F5.0
tp7861
a(I78
F5.0
tp7862
a(I89
F5.0
tp7863
a(I97
F5.0
tp7864
a(I143
F5.0
tp7865
aa(lp7866
(I0
F5.0
tp7867
a(I21
F5.0
tp7868
a(I27
F5.0
tp7869
a(I47
F5.0
tp7870
a(I49
F5.0
tp7871
a(I51
F5.0
tp7872
a(I55
F5.0
tp7873
a(I57
F5.0
tp7874
a(I63
F5.0
tp7875
a(I68
F5.0
tp7876
aa(lp7877
(I24
F5.0
tp7878
a(I125
F5.0
tp7879
a(I236
F5.0
tp7880
a(I245
F5.0
tp7881
a(I257
F5.0
tp7882
a(I267
F5.0
tp7883
a(I268
F5.0
tp7884
a(I281
F5.0
tp7885
a(I284
F5.0
tp7886
a(I286
F5.0
tp7887
aa(lp7888
(I14
F5.0
tp7889
a(I281
F5.0
tp7890
a(I299
F5.0
tp7891
a(I404
F5.0
tp7892
a(I470
F5.0
tp7893
a(I596
F5.0
tp7894
a(I741
F5.0
tp7895
a(I750
F5.0
tp7896
a(I755
F5.0
tp7897
a(I110
F4.0
tp7898
aa(lp7899
(I63
F5.0
tp7900
a(I68
F5.0
tp7901
a(I97
F5.0
tp7902
a(I219
F5.0
tp7903
a(I222
F5.0
tp7904
a(I317
F5.0
tp7905
a(I519
F5.0
tp7906
a(I659
F5.0
tp7907
a(I734
F5.0
tp7908
a(I8
F4.0
tp7909
aa(lp7910
(I285
F5.0
tp7911
a(I301
F5.0
tp7912
a(I310
F5.0
tp7913
a(I886
F5.0
tp7914
a(I895
F5.0
tp7915
a(I1061
F5.0
tp7916
a(I1175
F5.0
tp7917
a(I241
F4.0
tp7918
a(I257
F4.0
tp7919
a(I261
F4.0
tp7920
aa(lp7921
(I0
F5.0
tp7922
a(I21
F5.0
tp7923
a(I27
F5.0
tp7924
a(I49
F5.0
tp7925
a(I76
F5.0
tp7926
a(I126
F5.0
tp7927
a(I160
F5.0
tp7928
a(I171
F5.0
tp7929
a(I172
F5.0
tp7930
a(I173
F5.0
tp7931
aa(lp7932
(I120
F5.0
tp7933
a(I150
F5.0
tp7934
a(I327
F5.0
tp7935
a(I332
F5.0
tp7936
a(I844
F5.0
tp7937
a(I6
F4.0
tp7938
a(I24
F4.0
tp7939
a(I99
F4.0
tp7940
a(I116
F4.0
tp7941
a(I117
F4.0
tp7942
aa(lp7943
(I167
F5.0
tp7944
a(I747
F5.0
tp7945
a(I49
F4.0
tp7946
a(I163
F4.0
tp7947
a(I168
F4.0
tp7948
a(I171
F4.0
tp7949
a(I173
F4.0
tp7950
a(I257
F4.0
tp7951
a(I0
F3.0
tp7952
a(I8
F3.0
tp7953
aa(lp7954
(I271
F5.0
tp7955
a(I309
F5.0
tp7956
a(I312
F5.0
tp7957
a(I257
F4.0
tp7958
a(I267
F4.0
tp7959
a(I268
F4.0
tp7960
a(I287
F4.0
tp7961
a(I293
F4.0
tp7962
a(I300
F4.0
tp7963
a(I303
F4.0
tp7964
aa(lp7965
(I18
F5.0
tp7966
a(I99
F5.0
tp7967
a(I285
F5.0
tp7968
a(I332
F5.0
tp7969
a(I880
F5.0
tp7970
a(I8
F4.0
tp7971
a(I14
F4.0
tp7972
a(I180
F4.0
tp7973
a(I244
F4.0
tp7974
a(I257
F4.0
tp7975
aa(lp7976
(I293
F5.0
tp7977
a(I831
F5.0
tp7978
a(I832
F5.0
tp7979
a(I1058
F5.0
tp7980
a(I0
F4.0
tp7981
a(I24
F4.0
tp7982
a(I273
F4.0
tp7983
a(I309
F4.0
tp7984
a(I256
F3.0
tp7985
a(I322
F3.0
tp7986
aa(lp7987
(I11
F5.0
tp7988
a(I27
F5.0
tp7989
a(I41
F5.0
tp7990
a(I69
F5.0
tp7991
a(I82
F5.0
tp7992
a(I87
F5.0
tp7993
a(I88
F5.0
tp7994
a(I113
F5.0
tp7995
a(I163
F5.0
tp7996
a(I167
F5.0
tp7997
aa(lp7998
(I99
F5.0
tp7999
a(I14
F4.0
tp8000
a(I24
F4.0
tp8001
a(I115
F4.0
tp8002
a(I116
F4.0
tp8003
a(I146
F4.0
tp8004
a(I236
F4.0
tp8005
a(I281
F4.0
tp8006
a(I284
F4.0
tp8007
a(I286
F4.0
tp8008
aa(lp8009
(I353
F5.0
tp8010
a(I271
F4.0
tp8011
a(I299
F4.0
tp8012
a(I321
F4.0
tp8013
a(I332
F4.0
tp8014
a(I361
F4.0
tp8015
a(I688
F4.0
tp8016
a(I747
F4.0
tp8017
a(I309
F3.0
tp8018
a(I312
F3.0
tp8019
aa(lp8020
(I99
F5.0
tp8021
a(I256
F5.0
tp8022
a(I257
F5.0
tp8023
a(I268
F5.0
tp8024
a(I1011
F5.0
tp8025
a(I0
F4.0
tp8026
a(I6
F4.0
tp8027
a(I14
F4.0
tp8028
a(I49
F4.0
tp8029
a(I108
F4.0
tp8030
aa(lp8031
(I63
F5.0
tp8032
a(I68
F5.0
tp8033
a(I96
F5.0
tp8034
a(I142
F5.0
tp8035
a(I169
F5.0
tp8036
a(I189
F5.0
tp8037
a(I191
F5.0
tp8038
a(I195
F5.0
tp8039
a(I196
F5.0
tp8040
a(I201
F5.0
tp8041
aa(lp8042
(I242
F5.0
tp8043
a(I268
F5.0
tp8044
a(I285
F5.0
tp8045
a(I303
F5.0
tp8046
a(I331
F5.0
tp8047
a(I689
F5.0
tp8048
a(I872
F5.0
tp8049
a(I881
F5.0
tp8050
a(I244
F4.0
tp8051
a(I287
F4.0
tp8052
aa(lp8053
(I13
F5.0
tp8054
a(I18
F5.0
tp8055
a(I19
F5.0
tp8056
a(I99
F5.0
tp8057
a(I123
F5.0
tp8058
a(I136
F5.0
tp8059
a(I275
F5.0
tp8060
a(I514
F5.0
tp8061
a(I1066
F5.0
tp8062
a(I106
F4.0
tp8063
aa(lp8064
(I142
F5.0
tp8065
a(I201
F5.0
tp8066
a(I212
F5.0
tp8067
a(I282
F5.0
tp8068
a(I317
F5.0
tp8069
a(I484
F5.0
tp8070
a(I495
F5.0
tp8071
a(I606
F5.0
tp8072
a(I14
F4.0
tp8073
a(I27
F4.0
tp8074
aa(lp8075
(I49
F5.0
tp8076
a(I123
F5.0
tp8077
a(I241
F5.0
tp8078
a(I285
F5.0
tp8079
a(I0
F4.0
tp8080
a(I8
F4.0
tp8081
a(I12
F4.0
tp8082
a(I24
F4.0
tp8083
a(I126
F4.0
tp8084
a(I180
F4.0
tp8085
aa(lp8086
(I252
F5.0
tp8087
a(I514
F5.0
tp8088
a(I1387
F5.0
tp8089
a(I126
F4.0
tp8090
a(I245
F4.0
tp8091
a(I247
F4.0
tp8092
a(I285
F4.0
tp8093
a(I292
F4.0
tp8094
a(I295
F4.0
tp8095
a(I531
F4.0
tp8096
aa(lp8097
(I99
F5.0
tp8098
a(I126
F5.0
tp8099
a(I136
F5.0
tp8100
a(I155
F5.0
tp8101
a(I174
F5.0
tp8102
a(I185
F5.0
tp8103
a(I186
F5.0
tp8104
a(I191
F5.0
tp8105
a(I257
F5.0
tp8106
a(I356
F5.0
tp8107
aa(lp8108
(I0
F5.0
tp8109
a(I49
F5.0
tp8110
a(I68
F5.0
tp8111
a(I81
F5.0
tp8112
a(I88
F5.0
tp8113
a(I95
F5.0
tp8114
a(I134
F5.0
tp8115
a(I143
F5.0
tp8116
a(I163
F5.0
tp8117
a(I168
F5.0
tp8118
aa(lp8119
(I21
F5.0
tp8120
a(I68
F5.0
tp8121
a(I95
F5.0
tp8122
a(I96
F5.0
tp8123
a(I99
F5.0
tp8124
a(I194
F5.0
tp8125
a(I300
F5.0
tp8126
a(I326
F5.0
tp8127
a(I358
F5.0
tp8128
a(I525
F5.0
tp8129
aa(lp8130
(I285
F5.0
tp8131
a(I301
F5.0
tp8132
a(I241
F4.0
tp8133
a(I268
F4.0
tp8134
a(I287
F4.0
tp8135
a(I288
F4.0
tp8136
a(I293
F4.0
tp8137
a(I299
F4.0
tp8138
a(I339
F4.0
tp8139
a(I1037
F4.0
tp8140
aa(lp8141
(I21
F5.0
tp8142
a(I49
F5.0
tp8143
a(I97
F5.0
tp8144
a(I133
F5.0
tp8145
a(I171
F5.0
tp8146
a(I173
F5.0
tp8147
a(I177
F5.0
tp8148
a(I185
F5.0
tp8149
a(I195
F5.0
tp8150
a(I264
F5.0
tp8151
aa(lp8152
(I13
F5.0
tp8153
a(I99
F5.0
tp8154
a(I126
F5.0
tp8155
a(I257
F5.0
tp8156
a(I0
F4.0
tp8157
a(I12
F4.0
tp8158
a(I14
F4.0
tp8159
a(I49
F4.0
tp8160
a(I123
F4.0
tp8161
a(I236
F4.0
tp8162
aa(lp8163
(I8
F5.0
tp8164
a(I99
F5.0
tp8165
a(I223
F5.0
tp8166
a(I257
F5.0
tp8167
a(I275
F5.0
tp8168
a(I296
F5.0
tp8169
a(I301
F5.0
tp8170
a(I302
F5.0
tp8171
a(I310
F5.0
tp8172
a(I743
F5.0
tp8173
aa(lp8174
(I126
F5.0
tp8175
a(I301
F5.0
tp8176
a(I478
F5.0
tp8177
a(I507
F5.0
tp8178
a(I602
F5.0
tp8179
a(I656
F5.0
tp8180
a(I962
F5.0
tp8181
a(I0
F4.0
tp8182
a(I22
F4.0
tp8183
a(I155
F4.0
tp8184
aa(lp8185
(I9
F5.0
tp8186
a(I11
F5.0
tp8187
a(I63
F5.0
tp8188
a(I97
F5.0
tp8189
a(I99
F5.0
tp8190
a(I123
F5.0
tp8191
a(I124
F5.0
tp8192
a(I189
F5.0
tp8193
a(I257
F5.0
tp8194
a(I491
F5.0
tp8195
aa(lp8196
(I49
F5.0
tp8197
a(I78
F5.0
tp8198
a(I143
F5.0
tp8199
a(I171
F5.0
tp8200
a(I173
F5.0
tp8201
a(I175
F5.0
tp8202
a(I180
F5.0
tp8203
a(I201
F5.0
tp8204
a(I203
F5.0
tp8205
a(I209
F5.0
tp8206
aa(lp8207
(I0
F5.0
tp8208
a(I7
F5.0
tp8209
a(I8
F5.0
tp8210
a(I10
F5.0
tp8211
a(I22
F5.0
tp8212
a(I29
F5.0
tp8213
a(I31
F5.0
tp8214
a(I46
F5.0
tp8215
a(I47
F5.0
tp8216
a(I49
F5.0
tp8217
aa(lp8218
(I49
F5.0
tp8219
a(I88
F5.0
tp8220
a(I95
F5.0
tp8221
a(I173
F5.0
tp8222
a(I174
F5.0
tp8223
a(I175
F5.0
tp8224
a(I185
F5.0
tp8225
a(I249
F5.0
tp8226
a(I257
F5.0
tp8227
a(I317
F5.0
tp8228
aa(lp8229
(I10
F5.0
tp8230
a(I14
F5.0
tp8231
a(I21
F5.0
tp8232
a(I30
F5.0
tp8233
a(I49
F5.0
tp8234
a(I68
F5.0
tp8235
a(I81
F5.0
tp8236
a(I93
F5.0
tp8237
a(I95
F5.0
tp8238
a(I97
F5.0
tp8239
aa(lp8240
(I268
F4.0
tp8241
a(I269
F4.0
tp8242
a(I270
F4.0
tp8243
a(I285
F4.0
tp8244
a(I287
F4.0
tp8245
a(I293
F4.0
tp8246
a(I300
F4.0
tp8247
a(I302
F4.0
tp8248
a(I303
F4.0
tp8249
a(I304
F4.0
tp8250
aa(lp8251
(I20
F5.0
tp8252
a(I24
F5.0
tp8253
a(I27
F5.0
tp8254
a(I41
F5.0
tp8255
a(I49
F5.0
tp8256
a(I82
F5.0
tp8257
a(I86
F5.0
tp8258
a(I94
F5.0
tp8259
a(I97
F5.0
tp8260
a(I130
F5.0
tp8261
aa(lp8262
(I258
F5.0
tp8263
a(I268
F5.0
tp8264
a(I270
F5.0
tp8265
a(I287
F5.0
tp8266
a(I301
F5.0
tp8267
a(I305
F5.0
tp8268
a(I306
F5.0
tp8269
a(I326
F5.0
tp8270
a(I901
F5.0
tp8271
a(I269
F4.0
tp8272
aa(lp8273
(I70
F5.0
tp8274
a(I97
F5.0
tp8275
a(I172
F5.0
tp8276
a(I198
F5.0
tp8277
a(I214
F5.0
tp8278
a(I268
F5.0
tp8279
a(I293
F5.0
tp8280
a(I312
F5.0
tp8281
a(I426
F5.0
tp8282
a(I482
F5.0
tp8283
aa(lp8284
(I14
F5.0
tp8285
a(I275
F5.0
tp8286
a(I476
F5.0
tp8287
a(I8
F4.0
tp8288
a(I116
F4.0
tp8289
a(I126
F4.0
tp8290
a(I281
F4.0
tp8291
a(I290
F4.0
tp8292
a(I292
F4.0
tp8293
a(I294
F4.0
tp8294
aa(lp8295
(I257
F5.0
tp8296
a(I268
F5.0
tp8297
a(I285
F5.0
tp8298
a(I689
F5.0
tp8299
a(I244
F4.0
tp8300
a(I299
F4.0
tp8301
a(I301
F4.0
tp8302
a(I303
F4.0
tp8303
a(I309
F4.0
tp8304
a(I310
F4.0
tp8305
aa(lp8306
(I54
F5.0
tp8307
a(I99
F5.0
tp8308
a(I142
F5.0
tp8309
a(I177
F5.0
tp8310
a(I602
F5.0
tp8311
a(I918
F5.0
tp8312
a(I1148
F5.0
tp8313
a(I0
F4.0
tp8314
a(I7
F4.0
tp8315
a(I29
F4.0
tp8316
aa(lp8317
(I3
F5.0
tp8318
a(I63
F5.0
tp8319
a(I173
F5.0
tp8320
a(I175
F5.0
tp8321
a(I202
F5.0
tp8322
a(I257
F5.0
tp8323
a(I514
F5.0
tp8324
a(I548
F5.0
tp8325
a(I0
F4.0
tp8326
a(I6
F4.0
tp8327
aa(lp8328
(I6
F5.0
tp8329
a(I7
F5.0
tp8330
a(I11
F5.0
tp8331
a(I12
F5.0
tp8332
a(I13
F5.0
tp8333
a(I55
F5.0
tp8334
a(I63
F5.0
tp8335
a(I68
F5.0
tp8336
a(I80
F5.0
tp8337
a(I92
F5.0
tp8338
aa(lp8339
(I0
F5.0
tp8340
a(I116
F5.0
tp8341
a(I117
F5.0
tp8342
a(I120
F5.0
tp8343
a(I180
F5.0
tp8344
a(I219
F5.0
tp8345
a(I221
F5.0
tp8346
a(I293
F5.0
tp8347
a(I299
F5.0
tp8348
a(I327
F5.0
tp8349
aa(lp8350
(I257
F5.0
tp8351
a(I364
F5.0
tp8352
a(I450
F5.0
tp8353
a(I775
F5.0
tp8354
a(I844
F5.0
tp8355
a(I1036
F5.0
tp8356
a(I70
F4.0
tp8357
a(I110
F4.0
tp8358
a(I124
F4.0
tp8359
a(I194
F4.0
tp8360
aa(lp8361
(I14
F5.0
tp8362
a(I49
F5.0
tp8363
a(I116
F5.0
tp8364
a(I147
F5.0
tp8365
a(I180
F5.0
tp8366
a(I236
F5.0
tp8367
a(I244
F5.0
tp8368
a(I545
F5.0
tp8369
a(I1156
F5.0
tp8370
a(I6
F4.0
tp8371
aa(lp8372
(I172
F5.0
tp8373
a(I301
F5.0
tp8374
a(I474
F5.0
tp8375
a(I514
F5.0
tp8376
a(I874
F5.0
tp8377
a(I954
F5.0
tp8378
a(I269
F4.0
tp8379
a(I273
F4.0
tp8380
a(I285
F4.0
tp8381
a(I420
F4.0
tp8382
aa(lp8383
(I3
F5.0
tp8384
a(I11
F5.0
tp8385
a(I15
F5.0
tp8386
a(I55
F5.0
tp8387
a(I58
F5.0
tp8388
a(I59
F5.0
tp8389
a(I60
F5.0
tp8390
a(I69
F5.0
tp8391
a(I78
F5.0
tp8392
a(I99
F5.0
tp8393
aa(lp8394
(I63
F5.0
tp8395
a(I68
F5.0
tp8396
a(I70
F5.0
tp8397
a(I94
F5.0
tp8398
a(I97
F5.0
tp8399
a(I116
F5.0
tp8400
a(I120
F5.0
tp8401
a(I131
F5.0
tp8402
a(I142
F5.0
tp8403
a(I173
F5.0
tp8404
aa(lp8405
(I13
F5.0
tp8406
a(I41
F5.0
tp8407
a(I126
F5.0
tp8408
a(I136
F5.0
tp8409
a(I169
F5.0
tp8410
a(I241
F5.0
tp8411
a(I284
F5.0
tp8412
a(I285
F5.0
tp8413
a(I506
F5.0
tp8414
a(I521
F5.0
tp8415
aa(lp8416
(I7
F5.0
tp8417
a(I27
F5.0
tp8418
a(I90
F5.0
tp8419
a(I126
F5.0
tp8420
a(I133
F5.0
tp8421
a(I167
F5.0
tp8422
a(I204
F5.0
tp8423
a(I207
F5.0
tp8424
a(I211
F5.0
tp8425
a(I317
F5.0
tp8426
aa(lp8427
(I0
F5.0
tp8428
a(I97
F5.0
tp8429
a(I99
F5.0
tp8430
a(I169
F5.0
tp8431
a(I171
F5.0
tp8432
a(I176
F5.0
tp8433
a(I179
F5.0
tp8434
a(I206
F5.0
tp8435
a(I221
F5.0
tp8436
a(I431
F5.0
tp8437
aa(lp8438
(I0
F5.0
tp8439
a(I8
F5.0
tp8440
a(I13
F5.0
tp8441
a(I99
F5.0
tp8442
a(I126
F5.0
tp8443
a(I172
F5.0
tp8444
a(I271
F5.0
tp8445
a(I299
F5.0
tp8446
a(I300
F5.0
tp8447
a(I312
F5.0
tp8448
aa(lp8449
(I110
F5.0
tp8450
a(I268
F5.0
tp8451
a(I0
F4.0
tp8452
a(I12
F4.0
tp8453
a(I117
F4.0
tp8454
a(I120
F4.0
tp8455
a(I221
F4.0
tp8456
a(I475
F4.0
tp8457
a(I545
F4.0
tp8458
a(I933
F4.0
tp8459
aa(lp8460
(I0
F5.0
tp8461
a(I6
F5.0
tp8462
a(I13
F5.0
tp8463
a(I14
F5.0
tp8464
a(I24
F5.0
tp8465
a(I92
F5.0
tp8466
a(I99
F5.0
tp8467
a(I110
F5.0
tp8468
a(I116
F5.0
tp8469
a(I128
F5.0
tp8470
aa(lp8471
(I0
F5.0
tp8472
a(I7
F5.0
tp8473
a(I14
F5.0
tp8474
a(I27
F5.0
tp8475
a(I68
F5.0
tp8476
a(I70
F5.0
tp8477
a(I82
F5.0
tp8478
a(I85
F5.0
tp8479
a(I168
F5.0
tp8480
a(I188
F5.0
tp8481
aa(lp8482
(I244
F5.0
tp8483
a(I257
F5.0
tp8484
a(I271
F5.0
tp8485
a(I301
F5.0
tp8486
a(I312
F5.0
tp8487
a(I314
F5.0
tp8488
a(I320
F5.0
tp8489
a(I327
F5.0
tp8490
a(I330
F5.0
tp8491
a(I263
F4.0
tp8492
aa(lp8493
(I13
F5.0
tp8494
a(I22
F5.0
tp8495
a(I49
F5.0
tp8496
a(I58
F5.0
tp8497
a(I59
F5.0
tp8498
a(I60
F5.0
tp8499
a(I126
F5.0
tp8500
a(I151
F5.0
tp8501
a(I152
F5.0
tp8502
a(I153
F5.0
tp8503
aa(lp8504
(I178
F5.0
tp8505
a(I179
F5.0
tp8506
a(I192
F5.0
tp8507
a(I201
F5.0
tp8508
a(I226
F5.0
tp8509
a(I237
F5.0
tp8510
a(I518
F5.0
tp8511
a(I529
F5.0
tp8512
a(I678
F5.0
tp8513
a(I777
F5.0
tp8514
aa(lp8515
(I314
F5.0
tp8516
a(I326
F5.0
tp8517
a(I343
F5.0
tp8518
a(I344
F5.0
tp8519
a(I749
F5.0
tp8520
a(I257
F4.0
tp8521
a(I263
F4.0
tp8522
a(I268
F4.0
tp8523
a(I271
F4.0
tp8524
a(I285
F4.0
tp8525
aa(lp8526
(I21
F5.0
tp8527
a(I27
F5.0
tp8528
a(I49
F5.0
tp8529
a(I88
F5.0
tp8530
a(I126
F5.0
tp8531
a(I167
F5.0
tp8532
a(I173
F5.0
tp8533
a(I190
F5.0
tp8534
a(I191
F5.0
tp8535
a(I233
F5.0
tp8536
aa(lp8537
(I8
F5.0
tp8538
a(I41
F5.0
tp8539
a(I55
F5.0
tp8540
a(I116
F5.0
tp8541
a(I167
F5.0
tp8542
a(I179
F5.0
tp8543
a(I195
F5.0
tp8544
a(I201
F5.0
tp8545
a(I203
F5.0
tp8546
a(I211
F5.0
tp8547
aa(lp8548
(I10
F5.0
tp8549
a(I41
F5.0
tp8550
a(I153
F5.0
tp8551
a(I167
F5.0
tp8552
a(I199
F5.0
tp8553
a(I366
F5.0
tp8554
a(I6
F4.0
tp8555
a(I27
F4.0
tp8556
a(I97
F4.0
tp8557
a(I143
F4.0
tp8558
aa(lp8559
(I20
F5.0
tp8560
a(I49
F5.0
tp8561
a(I94
F5.0
tp8562
a(I117
F5.0
tp8563
a(I180
F5.0
tp8564
a(I194
F5.0
tp8565
a(I257
F5.0
tp8566
a(I293
F5.0
tp8567
a(I0
F4.0
tp8568
a(I14
F4.0
tp8569
aa(lp8570
(I27
F5.0
tp8571
a(I49
F5.0
tp8572
a(I96
F5.0
tp8573
a(I132
F5.0
tp8574
a(I171
F5.0
tp8575
a(I173
F5.0
tp8576
a(I186
F5.0
tp8577
a(I198
F5.0
tp8578
a(I203
F5.0
tp8579
a(I209
F5.0
tp8580
aa(lp8581
(I49
F5.0
tp8582
a(I99
F5.0
tp8583
a(I126
F5.0
tp8584
a(I133
F5.0
tp8585
a(I134
F5.0
tp8586
a(I171
F5.0
tp8587
a(I173
F5.0
tp8588
a(I178
F5.0
tp8589
a(I180
F5.0
tp8590
a(I186
F5.0
tp8591
aa(lp8592
(I271
F5.0
tp8593
a(I312
F5.0
tp8594
a(I325
F5.0
tp8595
a(I327
F5.0
tp8596
a(I126
F4.0
tp8597
a(I243
F4.0
tp8598
a(I244
F4.0
tp8599
a(I247
F4.0
tp8600
a(I249
F4.0
tp8601
a(I254
F4.0
tp8602
aa(lp8603
(I270
F5.0
tp8604
a(I298
F5.0
tp8605
a(I306
F5.0
tp8606
a(I342
F5.0
tp8607
a(I345
F5.0
tp8608
a(I886
F5.0
tp8609
a(I257
F4.0
tp8610
a(I259
F4.0
tp8611
a(I263
F4.0
tp8612
a(I268
F4.0
tp8613
aa(lp8614
(I257
F5.0
tp8615
a(I268
F5.0
tp8616
a(I301
F5.0
tp8617
a(I312
F5.0
tp8618
a(I325
F5.0
tp8619
a(I749
F5.0
tp8620
a(I259
F4.0
tp8621
a(I271
F4.0
tp8622
a(I291
F4.0
tp8623
a(I299
F4.0
tp8624
aa(lp8625
(I49
F5.0
tp8626
a(I173
F5.0
tp8627
a(I182
F5.0
tp8628
a(I268
F5.0
tp8629
a(I0
F4.0
tp8630
a(I11
F4.0
tp8631
a(I21
F4.0
tp8632
a(I55
F4.0
tp8633
a(I68
F4.0
tp8634
a(I78
F4.0
tp8635
aa(lp8636
(I6
F5.0
tp8637
a(I8
F5.0
tp8638
a(I27
F5.0
tp8639
a(I70
F5.0
tp8640
a(I94
F5.0
tp8641
a(I97
F5.0
tp8642
a(I110
F5.0
tp8643
a(I131
F5.0
tp8644
a(I132
F5.0
tp8645
a(I171
F5.0
tp8646
aa(lp8647
(I257
F5.0
tp8648
a(I309
F5.0
tp8649
a(I312
F5.0
tp8650
a(I689
F5.0
tp8651
a(I749
F5.0
tp8652
a(I258
F4.0
tp8653
a(I267
F4.0
tp8654
a(I299
F4.0
tp8655
a(I303
F4.0
tp8656
a(I306
F4.0
tp8657
aa(lp8658
(I11
F5.0
tp8659
a(I21
F5.0
tp8660
a(I27
F5.0
tp8661
a(I63
F5.0
tp8662
a(I88
F5.0
tp8663
a(I97
F5.0
tp8664
a(I99
F5.0
tp8665
a(I131
F5.0
tp8666
a(I132
F5.0
tp8667
a(I156
F5.0
tp8668
aa(lp8669
(I8
F5.0
tp8670
a(I49
F5.0
tp8671
a(I99
F5.0
tp8672
a(I126
F5.0
tp8673
a(I128
F5.0
tp8674
a(I149
F5.0
tp8675
a(I275
F5.0
tp8676
a(I474
F5.0
tp8677
a(I740
F5.0
tp8678
a(I92
F4.0
tp8679
aa(lp8680
(I14
F5.0
tp8681
a(I21
F5.0
tp8682
a(I41
F5.0
tp8683
a(I97
F5.0
tp8684
a(I116
F5.0
tp8685
a(I215
F5.0
tp8686
a(I240
F5.0
tp8687
a(I249
F5.0
tp8688
a(I272
F5.0
tp8689
a(I297
F5.0
tp8690
aa(lp8691
(I8
F5.0
tp8692
a(I49
F5.0
tp8693
a(I180
F5.0
tp8694
a(I274
F5.0
tp8695
a(I299
F5.0
tp8696
a(I305
F5.0
tp8697
a(I326
F5.0
tp8698
a(I331
F5.0
tp8699
a(I244
F4.0
tp8700
a(I268
F4.0
tp8701
aa(lp8702
(I1014
F5.0
tp8703
a(I0
F4.0
tp8704
a(I6
F4.0
tp8705
a(I12
F4.0
tp8706
a(I14
F4.0
tp8707
a(I99
F4.0
tp8708
a(I120
F4.0
tp8709
a(I123
F4.0
tp8710
a(I128
F4.0
tp8711
a(I146
F4.0
tp8712
aa(lp8713
(I49
F5.0
tp8714
a(I126
F5.0
tp8715
a(I150
F5.0
tp8716
a(I293
F5.0
tp8717
a(I1141
F5.0
tp8718
a(I0
F4.0
tp8719
a(I2
F4.0
tp8720
a(I99
F4.0
tp8721
a(I108
F4.0
tp8722
a(I116
F4.0
tp8723
aa(lp8724
(I13
F5.0
tp8725
a(I23
F5.0
tp8726
a(I49
F5.0
tp8727
a(I99
F5.0
tp8728
a(I115
F5.0
tp8729
a(I126
F5.0
tp8730
a(I136
F5.0
tp8731
a(I186
F5.0
tp8732
a(I237
F5.0
tp8733
a(I241
F5.0
tp8734
aa(lp8735
(I6
F5.0
tp8736
a(I7
F5.0
tp8737
a(I24
F5.0
tp8738
a(I90
F5.0
tp8739
a(I99
F5.0
tp8740
a(I167
F5.0
tp8741
a(I168
F5.0
tp8742
a(I174
F5.0
tp8743
a(I208
F5.0
tp8744
a(I587
F5.0
tp8745
aa(lp8746
(I1
F5.0
tp8747
a(I3
F5.0
tp8748
a(I7
F5.0
tp8749
a(I11
F5.0
tp8750
a(I37
F5.0
tp8751
a(I49
F5.0
tp8752
a(I55
F5.0
tp8753
a(I65
F5.0
tp8754
a(I68
F5.0
tp8755
a(I76
F5.0
tp8756
aa(lp8757
(I49
F5.0
tp8758
a(I180
F5.0
tp8759
a(I256
F5.0
tp8760
a(I780
F5.0
tp8761
a(I126
F4.0
tp8762
a(I258
F3.0
tp8763
a(I268
F3.0
tp8764
a(I293
F3.0
tp8765
a(I297
F3.0
tp8766
a(I308
F3.0
tp8767
aa(lp8768
(I20
F5.0
tp8769
a(I49
F5.0
tp8770
a(I62
F5.0
tp8771
a(I94
F5.0
tp8772
a(I120
F5.0
tp8773
a(I142
F5.0
tp8774
a(I172
F5.0
tp8775
a(I180
F5.0
tp8776
a(I253
F5.0
tp8777
a(I258
F5.0
tp8778
aa(lp8779
(I172
F5.0
tp8780
a(I173
F5.0
tp8781
a(I257
F5.0
tp8782
a(I285
F5.0
tp8783
a(I426
F5.0
tp8784
a(I478
F5.0
tp8785
a(I653
F5.0
tp8786
a(I44
F4.0
tp8787
a(I49
F4.0
tp8788
a(I126
F4.0
tp8789
aa(lp8790
(I222
F5.0
tp8791
a(I291
F5.0
tp8792
a(I0
F4.0
tp8793
a(I14
F4.0
tp8794
a(I24
F4.0
tp8795
a(I49
F4.0
tp8796
a(I120
F4.0
tp8797
a(I126
F4.0
tp8798
a(I180
F4.0
tp8799
a(I221
F4.0
tp8800
aa(lp8801
(I267
F5.0
tp8802
a(I270
F5.0
tp8803
a(I287
F5.0
tp8804
a(I293
F5.0
tp8805
a(I299
F5.0
tp8806
a(I300
F5.0
tp8807
a(I312
F5.0
tp8808
a(I327
F5.0
tp8809
a(I331
F5.0
tp8810
a(I332
F5.0
tp8811
aa(lp8812
(I6
F5.0
tp8813
a(I175
F5.0
tp8814
a(I182
F5.0
tp8815
a(I218
F5.0
tp8816
a(I233
F5.0
tp8817
a(I257
F5.0
tp8818
a(I322
F5.0
tp8819
a(I325
F5.0
tp8820
a(I768
F5.0
tp8821
a(I878
F5.0
tp8822
aa(lp8823
(I241
F5.0
tp8824
a(I268
F5.0
tp8825
a(I285
F5.0
tp8826
a(I304
F5.0
tp8827
a(I310
F5.0
tp8828
a(I339
F5.0
tp8829
a(I886
F5.0
tp8830
a(I244
F4.0
tp8831
a(I302
F4.0
tp8832
a(I305
F4.0
tp8833
aa(lp8834
(I0
F5.0
tp8835
a(I21
F5.0
tp8836
a(I23
F5.0
tp8837
a(I63
F5.0
tp8838
a(I81
F5.0
tp8839
a(I95
F5.0
tp8840
a(I97
F5.0
tp8841
a(I99
F5.0
tp8842
a(I127
F5.0
tp8843
a(I167
F5.0
tp8844
aa(lp8845
(I6
F5.0
tp8846
a(I32
F5.0
tp8847
a(I46
F5.0
tp8848
a(I54
F5.0
tp8849
a(I78
F5.0
tp8850
a(I90
F5.0
tp8851
a(I92
F5.0
tp8852
a(I97
F5.0
tp8853
a(I99
F5.0
tp8854
a(I105
F5.0
tp8855
aa(lp8856
(I11
F5.0
tp8857
a(I49
F5.0
tp8858
a(I55
F5.0
tp8859
a(I80
F5.0
tp8860
a(I88
F5.0
tp8861
a(I94
F5.0
tp8862
a(I95
F5.0
tp8863
a(I126
F5.0
tp8864
a(I132
F5.0
tp8865
a(I142
F5.0
tp8866
aa(lp8867
(I21
F5.0
tp8868
a(I49
F5.0
tp8869
a(I62
F5.0
tp8870
a(I68
F5.0
tp8871
a(I70
F5.0
tp8872
a(I78
F5.0
tp8873
a(I90
F5.0
tp8874
a(I98
F5.0
tp8875
a(I132
F5.0
tp8876
a(I134
F5.0
tp8877
aa(lp8878
(I261
F5.0
tp8879
a(I263
F5.0
tp8880
a(I293
F5.0
tp8881
a(I301
F5.0
tp8882
a(I312
F5.0
tp8883
a(I326
F5.0
tp8884
a(I339
F5.0
tp8885
a(I345
F5.0
tp8886
a(I749
F5.0
tp8887
a(I871
F5.0
tp8888
aa(lp8889
(I271
F5.0
tp8890
a(I301
F5.0
tp8891
a(I306
F5.0
tp8892
a(I314
F5.0
tp8893
a(I327
F5.0
tp8894
a(I285
F4.0
tp8895
a(I298
F4.0
tp8896
a(I299
F4.0
tp8897
a(I312
F4.0
tp8898
a(I339
F4.0
tp8899
aa(lp8900
(I268
F5.0
tp8901
a(I288
F5.0
tp8902
a(I293
F5.0
tp8903
a(I299
F5.0
tp8904
a(I300
F5.0
tp8905
a(I312
F5.0
tp8906
a(I320
F5.0
tp8907
a(I325
F5.0
tp8908
a(I327
F5.0
tp8909
a(I332
F5.0
tp8910
aa(lp8911
(I257
F5.0
tp8912
a(I285
F5.0
tp8913
a(I299
F5.0
tp8914
a(I300
F5.0
tp8915
a(I303
F5.0
tp8916
a(I322
F5.0
tp8917
a(I677
F5.0
tp8918
a(I689
F5.0
tp8919
a(I894
F5.0
tp8920
a(I293
F4.0
tp8921
aa(lp8922
(I293
F5.0
tp8923
a(I299
F5.0
tp8924
a(I332
F5.0
tp8925
a(I747
F5.0
tp8926
a(I287
F4.0
tp8927
a(I325
F4.0
tp8928
a(I327
F4.0
tp8929
a(I331
F4.0
tp8930
a(I677
F4.0
tp8931
a(I681
F4.0
tp8932
aa(lp8933
(I269
F5.0
tp8934
a(I750
F5.0
tp8935
a(I270
F4.0
tp8936
a(I288
F4.0
tp8937
a(I299
F4.0
tp8938
a(I306
F4.0
tp8939
a(I309
F4.0
tp8940
a(I689
F4.0
tp8941
a(I749
F4.0
tp8942
a(I889
F4.0
tp8943
aa(lp8944
(I6
F4.0
tp8945
a(I52
F4.0
tp8946
a(I97
F4.0
tp8947
a(I99
F4.0
tp8948
a(I199
F4.0
tp8949
a(I218
F4.0
tp8950
a(I287
F4.0
tp8951
a(I664
F4.0
tp8952
a(I4
F3.0
tp8953
a(I16
F3.0
tp8954
aa(lp8955
(I0
F5.0
tp8956
a(I49
F5.0
tp8957
a(I56
F5.0
tp8958
a(I64
F5.0
tp8959
a(I70
F5.0
tp8960
a(I85
F5.0
tp8961
a(I86
F5.0
tp8962
a(I95
F5.0
tp8963
a(I96
F5.0
tp8964
a(I113
F5.0
tp8965
aa(lp8966
(I293
F5.0
tp8967
a(I308
F5.0
tp8968
a(I312
F5.0
tp8969
a(I330
F5.0
tp8970
a(I242
F4.0
tp8971
a(I263
F4.0
tp8972
a(I270
F4.0
tp8973
a(I287
F4.0
tp8974
a(I299
F4.0
tp8975
a(I321
F4.0
tp8976
aa(lp8977
(I116
F5.0
tp8978
a(I272
F5.0
tp8979
a(I0
F4.0
tp8980
a(I6
F4.0
tp8981
a(I23
F4.0
tp8982
a(I123
F4.0
tp8983
a(I128
F4.0
tp8984
a(I221
F4.0
tp8985
a(I280
F4.0
tp8986
a(I287
F4.0
tp8987
aa(lp8988
(I287
F5.0
tp8989
a(I301
F5.0
tp8990
a(I302
F5.0
tp8991
a(I750
F5.0
tp8992
a(I244
F4.0
tp8993
a(I257
F4.0
tp8994
a(I270
F4.0
tp8995
a(I285
F4.0
tp8996
a(I312
F4.0
tp8997
a(I315
F4.0
tp8998
aa(lp8999
(I146
F5.0
tp9000
a(I247
F5.0
tp9001
a(I285
F5.0
tp9002
a(I299
F5.0
tp9003
a(I301
F5.0
tp9004
a(I314
F5.0
tp9005
a(I339
F5.0
tp9006
a(I345
F5.0
tp9007
a(I743
F5.0
tp9008
a(I1536
F5.0
tp9009
aa(lp9010
(I287
F5.0
tp9011
a(I301
F5.0
tp9012
a(I312
F5.0
tp9013
a(I332
F5.0
tp9014
a(I285
F4.0
tp9015
a(I342
F4.0
tp9016
a(I346
F4.0
tp9017
a(I257
F3.0
tp9018
a(I263
F3.0
tp9019
a(I314
F3.0
tp9020
aa(lp9021
(I0
F5.0
tp9022
a(I14
F5.0
tp9023
a(I21
F5.0
tp9024
a(I27
F5.0
tp9025
a(I55
F5.0
tp9026
a(I63
F5.0
tp9027
a(I70
F5.0
tp9028
a(I78
F5.0
tp9029
a(I94
F5.0
tp9030
a(I96
F5.0
tp9031
aa(lp9032
(I407
F5.0
tp9033
a(I0
F4.0
tp9034
a(I70
F4.0
tp9035
a(I94
F4.0
tp9036
a(I110
F4.0
tp9037
a(I168
F4.0
tp9038
a(I188
F4.0
tp9039
a(I332
F4.0
tp9040
a(I901
F4.0
tp9041
a(I1109
F4.0
tp9042
aa(lp9043
(I3
F5.0
tp9044
a(I6
F5.0
tp9045
a(I7
F5.0
tp9046
a(I12
F5.0
tp9047
a(I21
F5.0
tp9048
a(I25
F5.0
tp9049
a(I30
F5.0
tp9050
a(I47
F5.0
tp9051
a(I49
F5.0
tp9052
a(I52
F5.0
tp9053
aa(lp9054
(I258
F4.0
tp9055
a(I267
F4.0
tp9056
a(I321
F4.0
tp9057
a(I324
F4.0
tp9058
a(I287
F3.0
tp9059
a(I291
F3.0
tp9060
a(I293
F3.0
tp9061
a(I303
F3.0
tp9062
a(I677
F3.0
tp9063
a(I990
F3.0
tp9064
aa(lp9065
(I6
F5.0
tp9066
a(I11
F5.0
tp9067
a(I97
F5.0
tp9068
a(I116
F5.0
tp9069
a(I120
F5.0
tp9070
a(I124
F5.0
tp9071
a(I146
F5.0
tp9072
a(I173
F5.0
tp9073
a(I175
F5.0
tp9074
a(I194
F5.0
tp9075
aa(lp9076
(I21
F5.0
tp9077
a(I49
F5.0
tp9078
a(I52
F5.0
tp9079
a(I54
F5.0
tp9080
a(I55
F5.0
tp9081
a(I70
F5.0
tp9082
a(I88
F5.0
tp9083
a(I94
F5.0
tp9084
a(I95
F5.0
tp9085
a(I100
F5.0
tp9086
aa(lp9087
(I268
F5.0
tp9088
a(I267
F4.0
tp9089
a(I271
F4.0
tp9090
a(I293
F4.0
tp9091
a(I300
F4.0
tp9092
a(I301
F4.0
tp9093
a(I342
F4.0
tp9094
a(I747
F4.0
tp9095
a(I244
F3.0
tp9096
a(I257
F3.0
tp9097
aa(lp9098
(I18
F5.0
tp9099
a(I58
F5.0
tp9100
a(I60
F5.0
tp9101
a(I269
F5.0
tp9102
a(I315
F5.0
tp9103
a(I339
F5.0
tp9104
a(I511
F5.0
tp9105
a(I651
F5.0
tp9106
a(I957
F5.0
tp9107
a(I959
F5.0
tp9108
aa(lp9109
(I191
F5.0
tp9110
a(I317
F5.0
tp9111
a(I508
F5.0
tp9112
a(I0
F4.0
tp9113
a(I12
F4.0
tp9114
a(I69
F4.0
tp9115
a(I85
F4.0
tp9116
a(I99
F4.0
tp9117
a(I115
F4.0
tp9118
a(I123
F4.0
tp9119
aa(lp9120
(I21
F5.0
tp9121
a(I48
F5.0
tp9122
a(I49
F5.0
tp9123
a(I68
F5.0
tp9124
a(I88
F5.0
tp9125
a(I97
F5.0
tp9126
a(I99
F5.0
tp9127
a(I125
F5.0
tp9128
a(I171
F5.0
tp9129
a(I173
F5.0
tp9130
aa(lp9131
(I6
F5.0
tp9132
a(I11
F5.0
tp9133
a(I21
F5.0
tp9134
a(I49
F5.0
tp9135
a(I55
F5.0
tp9136
a(I63
F5.0
tp9137
a(I95
F5.0
tp9138
a(I143
F5.0
tp9139
a(I173
F5.0
tp9140
a(I180
F5.0
tp9141
aa(lp9142
(I312
F5.0
tp9143
a(I293
F4.0
tp9144
a(I306
F4.0
tp9145
a(I325
F4.0
tp9146
a(I470
F4.0
tp9147
a(I49
F3.0
tp9148
a(I180
F3.0
tp9149
a(I244
F3.0
tp9150
a(I257
F3.0
tp9151
a(I259
F3.0
tp9152
aa(lp9153
(I10
F5.0
tp9154
a(I11
F5.0
tp9155
a(I22
F5.0
tp9156
a(I31
F5.0
tp9157
a(I46
F5.0
tp9158
a(I88
F5.0
tp9159
a(I95
F5.0
tp9160
a(I126
F5.0
tp9161
a(I133
F5.0
tp9162
a(I153
F5.0
tp9163
aa(lp9164
(I49
F5.0
tp9165
a(I126
F5.0
tp9166
a(I149
F5.0
tp9167
a(I180
F5.0
tp9168
a(I236
F5.0
tp9169
a(I268
F5.0
tp9170
a(I275
F5.0
tp9171
a(I287
F5.0
tp9172
a(I291
F5.0
tp9173
a(I312
F5.0
tp9174
aa(lp9175
(I14
F5.0
tp9176
a(I24
F5.0
tp9177
a(I68
F5.0
tp9178
a(I96
F5.0
tp9179
a(I97
F5.0
tp9180
a(I130
F5.0
tp9181
a(I131
F5.0
tp9182
a(I132
F5.0
tp9183
a(I134
F5.0
tp9184
a(I142
F5.0
tp9185
aa(lp9186
(I11
F5.0
tp9187
a(I162
F5.0
tp9188
a(I169
F5.0
tp9189
a(I173
F5.0
tp9190
a(I179
F5.0
tp9191
a(I184
F5.0
tp9192
a(I186
F5.0
tp9193
a(I191
F5.0
tp9194
a(I268
F5.0
tp9195
a(I291
F5.0
tp9196
aa(lp9197
(I124
F5.0
tp9198
a(I150
F5.0
tp9199
a(I282
F5.0
tp9200
a(I288
F5.0
tp9201
a(I739
F5.0
tp9202
a(I1008
F5.0
tp9203
a(I12
F4.0
tp9204
a(I18
F4.0
tp9205
a(I19
F4.0
tp9206
a(I110
F4.0
tp9207
aa(lp9208
(I0
F5.0
tp9209
a(I6
F5.0
tp9210
a(I49
F5.0
tp9211
a(I55
F5.0
tp9212
a(I82
F5.0
tp9213
a(I126
F5.0
tp9214
a(I142
F5.0
tp9215
a(I167
F5.0
tp9216
a(I171
F5.0
tp9217
a(I172
F5.0
tp9218
aa(lp9219
(I49
F5.0
tp9220
a(I116
F5.0
tp9221
a(I126
F5.0
tp9222
a(I284
F5.0
tp9223
a(I457
F5.0
tp9224
a(I474
F5.0
tp9225
a(I1084
F5.0
tp9226
a(I0
F4.0
tp9227
a(I92
F4.0
tp9228
a(I110
F4.0
tp9229
aa(lp9230
(I7
F5.0
tp9231
a(I13
F5.0
tp9232
a(I22
F5.0
tp9233
a(I55
F5.0
tp9234
a(I82
F5.0
tp9235
a(I88
F5.0
tp9236
a(I90
F5.0
tp9237
a(I97
F5.0
tp9238
a(I98
F5.0
tp9239
a(I99
F5.0
tp9240
aa(lp9241
(I257
F5.0
tp9242
a(I285
F5.0
tp9243
a(I301
F5.0
tp9244
a(I306
F5.0
tp9245
a(I312
F5.0
tp9246
a(I330
F5.0
tp9247
a(I688
F5.0
tp9248
a(I887
F5.0
tp9249
a(I1293
F5.0
tp9250
a(I269
F4.0
tp9251
aa(lp9252
(I267
F5.0
tp9253
a(I268
F5.0
tp9254
a(I269
F5.0
tp9255
a(I301
F5.0
tp9256
a(I302
F5.0
tp9257
a(I339
F5.0
tp9258
a(I873
F5.0
tp9259
a(I901
F5.0
tp9260
a(I271
F4.0
tp9261
a(I305
F4.0
tp9262
aa(lp9263
(I6
F5.0
tp9264
a(I88
F5.0
tp9265
a(I134
F5.0
tp9266
a(I182
F5.0
tp9267
a(I270
F5.0
tp9268
a(I674
F5.0
tp9269
a(I689
F5.0
tp9270
a(I61
F4.0
tp9271
a(I140
F4.0
tp9272
a(I173
F4.0
tp9273
aa(lp9274
(I11
F5.0
tp9275
a(I23
F5.0
tp9276
a(I49
F5.0
tp9277
a(I68
F5.0
tp9278
a(I82
F5.0
tp9279
a(I172
F5.0
tp9280
a(I180
F5.0
tp9281
a(I215
F5.0
tp9282
a(I431
F5.0
tp9283
a(I920
F5.0
tp9284
aa(lp9285
(I285
F5.0
tp9286
a(I689
F5.0
tp9287
a(I241
F4.0
tp9288
a(I268
F4.0
tp9289
a(I307
F4.0
tp9290
a(I309
F4.0
tp9291
a(I310
F4.0
tp9292
a(I312
F4.0
tp9293
a(I902
F4.0
tp9294
a(I908
F4.0
tp9295
aa(lp9296
(I1
F5.0
tp9297
a(I3
F5.0
tp9298
a(I10
F5.0
tp9299
a(I11
F5.0
tp9300
a(I27
F5.0
tp9301
a(I32
F5.0
tp9302
a(I41
F5.0
tp9303
a(I46
F5.0
tp9304
a(I47
F5.0
tp9305
a(I49
F5.0
tp9306
aa(lp9307
(I108
F5.0
tp9308
a(I172
F5.0
tp9309
a(I221
F5.0
tp9310
a(I238
F5.0
tp9311
a(I257
F5.0
tp9312
a(I261
F5.0
tp9313
a(I288
F5.0
tp9314
a(I300
F5.0
tp9315
a(I371
F5.0
tp9316
a(I651
F5.0
tp9317
aa(lp9318
(I24
F5.0
tp9319
a(I31
F5.0
tp9320
a(I49
F5.0
tp9321
a(I70
F5.0
tp9322
a(I71
F5.0
tp9323
a(I81
F5.0
tp9324
a(I88
F5.0
tp9325
a(I94
F5.0
tp9326
a(I96
F5.0
tp9327
a(I107
F5.0
tp9328
aa(lp9329
(I14
F5.0
tp9330
a(I26
F5.0
tp9331
a(I37
F5.0
tp9332
a(I117
F5.0
tp9333
a(I120
F5.0
tp9334
a(I132
F5.0
tp9335
a(I142
F5.0
tp9336
a(I171
F5.0
tp9337
a(I173
F5.0
tp9338
a(I196
F5.0
tp9339
aa(lp9340
(I7
F5.0
tp9341
a(I14
F5.0
tp9342
a(I21
F5.0
tp9343
a(I27
F5.0
tp9344
a(I49
F5.0
tp9345
a(I68
F5.0
tp9346
a(I70
F5.0
tp9347
a(I78
F5.0
tp9348
a(I81
F5.0
tp9349
a(I87
F5.0
tp9350
aa(lp9351
(I3
F5.0
tp9352
a(I10
F5.0
tp9353
a(I16
F5.0
tp9354
a(I21
F5.0
tp9355
a(I49
F5.0
tp9356
a(I55
F5.0
tp9357
a(I63
F5.0
tp9358
a(I91
F5.0
tp9359
a(I126
F5.0
tp9360
a(I143
F5.0
tp9361
aa(lp9362
(I49
F5.0
tp9363
a(I407
F5.0
tp9364
a(I514
F5.0
tp9365
a(I968
F5.0
tp9366
a(I0
F4.0
tp9367
a(I99
F4.0
tp9368
a(I116
F4.0
tp9369
a(I117
F4.0
tp9370
a(I120
F4.0
tp9371
a(I126
F4.0
tp9372
aa(lp9373
(I299
F5.0
tp9374
a(I879
F5.0
tp9375
a(I269
F4.0
tp9376
a(I287
F4.0
tp9377
a(I291
F4.0
tp9378
a(I298
F4.0
tp9379
a(I301
F4.0
tp9380
a(I303
F4.0
tp9381
a(I332
F4.0
tp9382
a(I677
F4.0
tp9383
aa(lp9384
(I7
F5.0
tp9385
a(I8
F5.0
tp9386
a(I10
F5.0
tp9387
a(I11
F5.0
tp9388
a(I55
F5.0
tp9389
a(I63
F5.0
tp9390
a(I92
F5.0
tp9391
a(I99
F5.0
tp9392
a(I123
F5.0
tp9393
a(I131
F5.0
tp9394
aa(lp9395
(I164
F4.0
tp9396
a(I165
F4.0
tp9397
a(I197
F4.0
tp9398
a(I461
F4.0
tp9399
a(I474
F4.0
tp9400
a(I509
F4.0
tp9401
a(I511
F4.0
tp9402
a(I528
F4.0
tp9403
a(I637
F4.0
tp9404
a(I854
F4.0
tp9405
aa(lp9406
(I271
F5.0
tp9407
a(I312
F5.0
tp9408
a(I314
F5.0
tp9409
a(I315
F5.0
tp9410
a(I749
F5.0
tp9411
a(I257
F4.0
tp9412
a(I285
F4.0
tp9413
a(I293
F4.0
tp9414
a(I299
F4.0
tp9415
a(I306
F4.0
tp9416
aa(lp9417
(I115
F5.0
tp9418
a(I257
F5.0
tp9419
a(I274
F5.0
tp9420
a(I282
F5.0
tp9421
a(I474
F5.0
tp9422
a(I897
F5.0
tp9423
a(I13
F4.0
tp9424
a(I18
F4.0
tp9425
a(I258
F4.0
tp9426
a(I320
F4.0
tp9427
aa(lp9428
(I8
F5.0
tp9429
a(I126
F5.0
tp9430
a(I688
F5.0
tp9431
a(I268
F4.0
tp9432
a(I285
F4.0
tp9433
a(I332
F4.0
tp9434
a(I333
F4.0
tp9435
a(I514
F4.0
tp9436
a(I753
F4.0
tp9437
a(I1367
F4.0
tp9438
aa(lp9439
(I2
F5.0
tp9440
a(I248
F5.0
tp9441
a(I286
F5.0
tp9442
a(I312
F5.0
tp9443
a(I420
F5.0
tp9444
a(I475
F5.0
tp9445
a(I534
F5.0
tp9446
a(I761
F5.0
tp9447
a(I845
F5.0
tp9448
a(I954
F5.0
tp9449
aa(lp9450
(I69
F5.0
tp9451
a(I284
F5.0
tp9452
a(I513
F5.0
tp9453
a(I691
F5.0
tp9454
a(I3
F4.0
tp9455
a(I55
F4.0
tp9456
a(I99
F4.0
tp9457
a(I152
F4.0
tp9458
a(I201
F4.0
tp9459
a(I203
F4.0
tp9460
aa(lp9461
(I44
F5.0
tp9462
a(I51
F5.0
tp9463
a(I82
F5.0
tp9464
a(I85
F5.0
tp9465
a(I169
F5.0
tp9466
a(I212
F5.0
tp9467
a(I241
F5.0
tp9468
a(I274
F5.0
tp9469
a(I288
F5.0
tp9470
a(I318
F5.0
tp9471
aa(lp9472
(I6
F5.0
tp9473
a(I9
F5.0
tp9474
a(I11
F5.0
tp9475
a(I21
F5.0
tp9476
a(I49
F5.0
tp9477
a(I58
F5.0
tp9478
a(I59
F5.0
tp9479
a(I60
F5.0
tp9480
a(I63
F5.0
tp9481
a(I68
F5.0
tp9482
aa(lp9483
(I257
F5.0
tp9484
a(I267
F5.0
tp9485
a(I271
F5.0
tp9486
a(I285
F5.0
tp9487
a(I299
F5.0
tp9488
a(I305
F5.0
tp9489
a(I306
F5.0
tp9490
a(I309
F5.0
tp9491
a(I312
F5.0
tp9492
a(I314
F5.0
tp9493
aa(lp9494
(I0
F5.0
tp9495
a(I6
F5.0
tp9496
a(I7
F5.0
tp9497
a(I8
F5.0
tp9498
a(I10
F5.0
tp9499
a(I11
F5.0
tp9500
a(I21
F5.0
tp9501
a(I23
F5.0
tp9502
a(I27
F5.0
tp9503
a(I46
F5.0
tp9504
aa(lp9505
(I6
F5.0
tp9506
a(I168
F5.0
tp9507
a(I301
F5.0
tp9508
a(I407
F5.0
tp9509
a(I546
F5.0
tp9510
a(I846
F5.0
tp9511
a(I918
F5.0
tp9512
a(I1008
F5.0
tp9513
a(I1239
F5.0
tp9514
a(I23
F4.0
tp9515
aa(lp9516
(I302
F4.0
tp9517
a(I305
F4.0
tp9518
a(I314
F4.0
tp9519
a(I318
F4.0
tp9520
a(I346
F4.0
tp9521
a(I899
F4.0
tp9522
a(I241
F3.0
tp9523
a(I268
F3.0
tp9524
a(I320
F3.0
tp9525
a(I886
F3.0
tp9526
aa(lp9527
(I6
F5.0
tp9528
a(I8
F5.0
tp9529
a(I11
F5.0
tp9530
a(I21
F5.0
tp9531
a(I22
F5.0
tp9532
a(I27
F5.0
tp9533
a(I30
F5.0
tp9534
a(I49
F5.0
tp9535
a(I55
F5.0
tp9536
a(I63
F5.0
tp9537
aa(lp9538
(I6
F5.0
tp9539
a(I11
F5.0
tp9540
a(I22
F5.0
tp9541
a(I49
F5.0
tp9542
a(I54
F5.0
tp9543
a(I60
F5.0
tp9544
a(I63
F5.0
tp9545
a(I99
F5.0
tp9546
a(I113
F5.0
tp9547
a(I127
F5.0
tp9548
aa(lp9549
(I99
F5.0
tp9550
a(I126
F5.0
tp9551
a(I150
F5.0
tp9552
a(I411
F5.0
tp9553
a(I514
F5.0
tp9554
a(I49
F4.0
tp9555
a(I115
F4.0
tp9556
a(I236
F4.0
tp9557
a(I239
F4.0
tp9558
a(I248
F4.0
tp9559
aa(lp9560
(I0
F5.0
tp9561
a(I8
F5.0
tp9562
a(I44
F5.0
tp9563
a(I55
F5.0
tp9564
a(I57
F5.0
tp9565
a(I63
F5.0
tp9566
a(I86
F5.0
tp9567
a(I126
F5.0
tp9568
a(I169
F5.0
tp9569
a(I173
F5.0
tp9570
aa(lp9571
(I21
F5.0
tp9572
a(I49
F5.0
tp9573
a(I55
F5.0
tp9574
a(I78
F5.0
tp9575
a(I95
F5.0
tp9576
a(I126
F5.0
tp9577
a(I146
F5.0
tp9578
a(I160
F5.0
tp9579
a(I171
F5.0
tp9580
a(I172
F5.0
tp9581
aa(lp9582
(I281
F5.0
tp9583
a(I287
F5.0
tp9584
a(I299
F5.0
tp9585
a(I312
F5.0
tp9586
a(I894
F5.0
tp9587
a(I110
F4.0
tp9588
a(I116
F4.0
tp9589
a(I117
F4.0
tp9590
a(I120
F4.0
tp9591
a(I236
F4.0
tp9592
aa(lp9593
(I291
F5.0
tp9594
a(I312
F5.0
tp9595
a(I293
F4.0
tp9596
a(I299
F4.0
tp9597
a(I325
F4.0
tp9598
a(I327
F4.0
tp9599
a(I341
F4.0
tp9600
a(I257
F3.0
tp9601
a(I306
F3.0
tp9602
a(I338
F3.0
tp9603
aa(lp9604
(I126
F5.0
tp9605
a(I301
F5.0
tp9606
a(I356
F5.0
tp9607
a(I513
F5.0
tp9608
a(I520
F5.0
tp9609
a(I653
F5.0
tp9610
a(I13
F4.0
tp9611
a(I99
F4.0
tp9612
a(I115
F4.0
tp9613
a(I123
F4.0
tp9614
aa(lp9615
(I11
F5.0
tp9616
a(I22
F5.0
tp9617
a(I31
F5.0
tp9618
a(I49
F5.0
tp9619
a(I55
F5.0
tp9620
a(I63
F5.0
tp9621
a(I97
F5.0
tp9622
a(I133
F5.0
tp9623
a(I168
F5.0
tp9624
a(I170
F5.0
tp9625
aa(lp9626
(I18
F5.0
tp9627
a(I47
F5.0
tp9628
a(I285
F5.0
tp9629
a(I317
F5.0
tp9630
a(I510
F5.0
tp9631
a(I522
F5.0
tp9632
a(I526
F5.0
tp9633
a(I603
F5.0
tp9634
a(I21
F4.0
tp9635
a(I173
F4.0
tp9636
aa(lp9637
(I13
F5.0
tp9638
a(I55
F5.0
tp9639
a(I58
F5.0
tp9640
a(I59
F5.0
tp9641
a(I60
F5.0
tp9642
a(I69
F5.0
tp9643
a(I97
F5.0
tp9644
a(I163
F5.0
tp9645
a(I169
F5.0
tp9646
a(I175
F5.0
tp9647
aa(lp9648
(I13
F5.0
tp9649
a(I63
F5.0
tp9650
a(I152
F5.0
tp9651
a(I284
F5.0
tp9652
a(I317
F5.0
tp9653
a(I415
F5.0
tp9654
a(I426
F5.0
tp9655
a(I473
F5.0
tp9656
a(I480
F5.0
tp9657
a(I495
F5.0
tp9658
aa(lp9659
(I124
F5.0
tp9660
a(I126
F5.0
tp9661
a(I762
F5.0
tp9662
a(I865
F5.0
tp9663
a(I0
F4.0
tp9664
a(I14
F4.0
tp9665
a(I24
F4.0
tp9666
a(I49
F4.0
tp9667
a(I110
F4.0
tp9668
a(I116
F4.0
tp9669
aa(lp9670
(I11
F5.0
tp9671
a(I22
F5.0
tp9672
a(I27
F5.0
tp9673
a(I41
F5.0
tp9674
a(I49
F5.0
tp9675
a(I55
F5.0
tp9676
a(I63
F5.0
tp9677
a(I67
F5.0
tp9678
a(I97
F5.0
tp9679
a(I99
F5.0
tp9680
aa(lp9681
(I21
F5.0
tp9682
a(I27
F5.0
tp9683
a(I30
F5.0
tp9684
a(I48
F5.0
tp9685
a(I50
F5.0
tp9686
a(I63
F5.0
tp9687
a(I81
F5.0
tp9688
a(I97
F5.0
tp9689
a(I116
F5.0
tp9690
a(I120
F5.0
tp9691
aa(lp9692
(I0
F5.0
tp9693
a(I7
F5.0
tp9694
a(I14
F5.0
tp9695
a(I27
F5.0
tp9696
a(I49
F5.0
tp9697
a(I68
F5.0
tp9698
a(I70
F5.0
tp9699
a(I78
F5.0
tp9700
a(I81
F5.0
tp9701
a(I85
F5.0
tp9702
aa(lp9703
(I6
F5.0
tp9704
a(I9
F5.0
tp9705
a(I44
F5.0
tp9706
a(I52
F5.0
tp9707
a(I55
F5.0
tp9708
a(I58
F5.0
tp9709
a(I59
F5.0
tp9710
a(I60
F5.0
tp9711
a(I80
F5.0
tp9712
a(I88
F5.0
tp9713
aa(lp9714
(I8
F5.0
tp9715
a(I99
F5.0
tp9716
a(I178
F5.0
tp9717
a(I197
F5.0
tp9718
a(I257
F5.0
tp9719
a(I268
F5.0
tp9720
a(I380
F5.0
tp9721
a(I381
F5.0
tp9722
a(I462
F5.0
tp9723
a(I509
F5.0
tp9724
aa(lp9725
(I0
F5.0
tp9726
a(I69
F5.0
tp9727
a(I96
F5.0
tp9728
a(I168
F5.0
tp9729
a(I173
F5.0
tp9730
a(I188
F5.0
tp9731
a(I209
F5.0
tp9732
a(I236
F5.0
tp9733
a(I273
F5.0
tp9734
a(I317
F5.0
tp9735
aa(lp9736
(I6
F5.0
tp9737
a(I8
F5.0
tp9738
a(I10
F5.0
tp9739
a(I11
F5.0
tp9740
a(I41
F5.0
tp9741
a(I49
F5.0
tp9742
a(I63
F5.0
tp9743
a(I78
F5.0
tp9744
a(I94
F5.0
tp9745
a(I107
F5.0
tp9746
aa(lp9747
(I0
F5.0
tp9748
a(I21
F5.0
tp9749
a(I23
F5.0
tp9750
a(I27
F5.0
tp9751
a(I37
F5.0
tp9752
a(I46
F5.0
tp9753
a(I49
F5.0
tp9754
a(I55
F5.0
tp9755
a(I64
F5.0
tp9756
a(I70
F5.0
tp9757
aa(lp9758
(I190
F5.0
tp9759
a(I236
F5.0
tp9760
a(I268
F5.0
tp9761
a(I285
F5.0
tp9762
a(I513
F5.0
tp9763
a(I761
F5.0
tp9764
a(I791
F5.0
tp9765
a(I68
F4.0
tp9766
a(I99
F4.0
tp9767
a(I110
F4.0
tp9768
aa(lp9769
(I10
F5.0
tp9770
a(I11
F5.0
tp9771
a(I32
F5.0
tp9772
a(I41
F5.0
tp9773
a(I55
F5.0
tp9774
a(I63
F5.0
tp9775
a(I127
F5.0
tp9776
a(I128
F5.0
tp9777
a(I149
F5.0
tp9778
a(I152
F5.0
tp9779
aa(lp9780
(I22
F5.0
tp9781
a(I49
F5.0
tp9782
a(I126
F5.0
tp9783
a(I131
F5.0
tp9784
a(I132
F5.0
tp9785
a(I133
F5.0
tp9786
a(I134
F5.0
tp9787
a(I135
F5.0
tp9788
a(I150
F5.0
tp9789
a(I167
F5.0
tp9790
aa(lp9791
(I24
F5.0
tp9792
a(I99
F5.0
tp9793
a(I106
F5.0
tp9794
a(I125
F5.0
tp9795
a(I147
F5.0
tp9796
a(I236
F5.0
tp9797
a(I273
F5.0
tp9798
a(I280
F5.0
tp9799
a(I281
F5.0
tp9800
a(I284
F5.0
tp9801
aa(lp9802
(I0
F5.0
tp9803
a(I7
F5.0
tp9804
a(I11
F5.0
tp9805
a(I21
F5.0
tp9806
a(I49
F5.0
tp9807
a(I68
F5.0
tp9808
a(I78
F5.0
tp9809
a(I86
F5.0
tp9810
a(I88
F5.0
tp9811
a(I96
F5.0
tp9812
aa(lp9813
(I0
F5.0
tp9814
a(I49
F5.0
tp9815
a(I55
F5.0
tp9816
a(I68
F5.0
tp9817
a(I160
F5.0
tp9818
a(I171
F5.0
tp9819
a(I404
F5.0
tp9820
a(I10
F4.0
tp9821
a(I23
F4.0
tp9822
a(I76
F4.0
tp9823
aa(lp9824
(I11
F5.0
tp9825
a(I19
F5.0
tp9826
a(I58
F5.0
tp9827
a(I59
F5.0
tp9828
a(I123
F5.0
tp9829
a(I136
F5.0
tp9830
a(I178
F5.0
tp9831
a(I189
F5.0
tp9832
a(I211
F5.0
tp9833
a(I275
F5.0
tp9834
aa(lp9835
(I12
F5.0
tp9836
a(I49
F5.0
tp9837
a(I150
F5.0
tp9838
a(I180
F5.0
tp9839
a(I274
F5.0
tp9840
a(I0
F4.0
tp9841
a(I99
F4.0
tp9842
a(I282
F4.0
tp9843
a(I293
F4.0
tp9844
a(I300
F4.0
tp9845
aa(lp9846
(I7
F5.0
tp9847
a(I21
F5.0
tp9848
a(I49
F5.0
tp9849
a(I68
F5.0
tp9850
a(I70
F5.0
tp9851
a(I78
F5.0
tp9852
a(I82
F5.0
tp9853
a(I87
F5.0
tp9854
a(I88
F5.0
tp9855
a(I95
F5.0
tp9856
aa(lp9857
(I0
F5.0
tp9858
a(I21
F5.0
tp9859
a(I32
F5.0
tp9860
a(I49
F5.0
tp9861
a(I67
F5.0
tp9862
a(I68
F5.0
tp9863
a(I70
F5.0
tp9864
a(I78
F5.0
tp9865
a(I81
F5.0
tp9866
a(I95
F5.0
tp9867
aa(lp9868
(I308
F5.0
tp9869
a(I314
F5.0
tp9870
a(I315
F5.0
tp9871
a(I318
F5.0
tp9872
a(I326
F5.0
tp9873
a(I241
F4.0
tp9874
a(I269
F4.0
tp9875
a(I271
F4.0
tp9876
a(I287
F4.0
tp9877
a(I301
F4.0
tp9878
aa(lp9879
(I27
F5.0
tp9880
a(I49
F5.0
tp9881
a(I78
F5.0
tp9882
a(I94
F5.0
tp9883
a(I120
F5.0
tp9884
a(I152
F5.0
tp9885
a(I153
F5.0
tp9886
a(I173
F5.0
tp9887
a(I193
F5.0
tp9888
a(I208
F5.0
tp9889
aa(lp9890
(I588
F5.0
tp9891
a(I99
F4.0
tp9892
a(I123
F4.0
tp9893
a(I128
F4.0
tp9894
a(I204
F4.0
tp9895
a(I236
F4.0
tp9896
a(I293
F4.0
tp9897
a(I317
F4.0
tp9898
a(I473
F4.0
tp9899
a(I479
F4.0
tp9900
aa(lp9901
(I0
F5.0
tp9902
a(I11
F5.0
tp9903
a(I14
F5.0
tp9904
a(I21
F5.0
tp9905
a(I27
F5.0
tp9906
a(I62
F5.0
tp9907
a(I65
F5.0
tp9908
a(I68
F5.0
tp9909
a(I72
F5.0
tp9910
a(I81
F5.0
tp9911
aa(lp9912
(I0
F5.0
tp9913
a(I7
F5.0
tp9914
a(I49
F5.0
tp9915
a(I78
F5.0
tp9916
a(I143
F5.0
tp9917
a(I175
F5.0
tp9918
a(I190
F5.0
tp9919
a(I317
F5.0
tp9920
a(I479
F5.0
tp9921
a(I496
F5.0
tp9922
aa(lp9923
(I11
F5.0
tp9924
a(I12
F5.0
tp9925
a(I22
F5.0
tp9926
a(I29
F5.0
tp9927
a(I46
F5.0
tp9928
a(I49
F5.0
tp9929
a(I55
F5.0
tp9930
a(I63
F5.0
tp9931
a(I80
F5.0
tp9932
a(I90
F5.0
tp9933
aa(lp9934
(I236
F5.0
tp9935
a(I254
F5.0
tp9936
a(I273
F5.0
tp9937
a(I274
F5.0
tp9938
a(I277
F5.0
tp9939
a(I279
F5.0
tp9940
a(I288
F5.0
tp9941
a(I420
F5.0
tp9942
a(I784
F5.0
tp9943
a(I8
F4.0
tp9944
aa(lp9945
(I301
F5.0
tp9946
a(I6
F4.0
tp9947
a(I99
F4.0
tp9948
a(I123
F4.0
tp9949
a(I128
F4.0
tp9950
a(I149
F4.0
tp9951
a(I299
F4.0
tp9952
a(I300
F4.0
tp9953
a(I312
F4.0
tp9954
a(I320
F4.0
tp9955
aa(lp9956
(I275
F5.0
tp9957
a(I284
F5.0
tp9958
a(I285
F5.0
tp9959
a(I286
F5.0
tp9960
a(I627
F5.0
tp9961
a(I675
F5.0
tp9962
a(I8
F4.0
tp9963
a(I9
F4.0
tp9964
a(I99
F4.0
tp9965
a(I116
F4.0
tp9966
aa(lp9967
(I0
F5.0
tp9968
a(I4
F5.0
tp9969
a(I14
F5.0
tp9970
a(I18
F5.0
tp9971
a(I24
F5.0
tp9972
a(I70
F5.0
tp9973
a(I78
F5.0
tp9974
a(I82
F5.0
tp9975
a(I85
F5.0
tp9976
a(I87
F5.0
tp9977
aa(lp9978
(I97
F5.0
tp9979
a(I132
F5.0
tp9980
a(I317
F5.0
tp9981
a(I426
F5.0
tp9982
a(I495
F5.0
tp9983
a(I27
F4.0
tp9984
a(I49
F4.0
tp9985
a(I55
F4.0
tp9986
a(I78
F4.0
tp9987
a(I95
F4.0
tp9988
aa(lp9989
(I85
F5.0
tp9990
a(I115
F5.0
tp9991
a(I164
F5.0
tp9992
a(I165
F5.0
tp9993
a(I169
F5.0
tp9994
a(I223
F5.0
tp9995
a(I260
F5.0
tp9996
a(I274
F5.0
tp9997
a(I299
F5.0
tp9998
a(I381
F5.0
tp9999
aa(lp10000
(I49
F5.0
tp10001
a(I126
F5.0
tp10002
a(I173
F5.0
tp10003
a(I0
F4.0
tp10004
a(I8
F4.0
tp10005
a(I11
F4.0
tp10006
a(I22
F4.0
tp10007
a(I55
F4.0
tp10008
a(I97
F4.0
tp10009
a(I99
F4.0
tp10010
aa(lp10011
(I86
F5.0
tp10012
a(I142
F5.0
tp10013
a(I150
F5.0
tp10014
a(I152
F5.0
tp10015
a(I172
F5.0
tp10016
a(I184
F5.0
tp10017
a(I185
F5.0
tp10018
a(I189
F5.0
tp10019
a(I190
F5.0
tp10020
a(I208
F5.0
tp10021
aa(lp10022
(I13
F5.0
tp10023
a(I131
F5.0
tp10024
a(I142
F5.0
tp10025
a(I167
F5.0
tp10026
a(I196
F5.0
tp10027
a(I356
F5.0
tp10028
a(I422
F5.0
tp10029
a(I426
F5.0
tp10030
a(I481
F5.0
tp10031
a(I482
F5.0
tp10032
aa(lp10033
(I6
F5.0
tp10034
a(I8
F5.0
tp10035
a(I18
F5.0
tp10036
a(I21
F5.0
tp10037
a(I55
F5.0
tp10038
a(I57
F5.0
tp10039
a(I63
F5.0
tp10040
a(I88
F5.0
tp10041
a(I95
F5.0
tp10042
a(I130
F5.0
tp10043
aa(lp10044
(I154
F5.0
tp10045
a(I401
F5.0
tp10046
a(I777
F5.0
tp10047
a(I780
F5.0
tp10048
a(I196
F4.0
tp10049
a(I370
F4.0
tp10050
a(I642
F4.0
tp10051
a(I1405
F4.0
tp10052
a(I215
F3.0
tp10053
a(I312
F3.0
tp10054
aa(lp10055
(I267
F5.0
tp10056
a(I346
F5.0
tp10057
a(I285
F4.0
tp10058
a(I301
F4.0
tp10059
a(I312
F4.0
tp10060
a(I314
F4.0
tp10061
a(I344
F4.0
tp10062
a(I690
F4.0
tp10063
a(I749
F4.0
tp10064
a(I269
F3.0
tp10065
aa(lp10066
(I8
F5.0
tp10067
a(I13
F5.0
tp10068
a(I41
F5.0
tp10069
a(I47
F5.0
tp10070
a(I49
F5.0
tp10071
a(I51
F5.0
tp10072
a(I55
F5.0
tp10073
a(I57
F5.0
tp10074
a(I63
F5.0
tp10075
a(I80
F5.0
tp10076
aa(lp10077
(I8
F5.0
tp10078
a(I149
F5.0
tp10079
a(I236
F5.0
tp10080
a(I275
F5.0
tp10081
a(I475
F5.0
tp10082
a(I627
F5.0
tp10083
a(I695
F5.0
tp10084
a(I739
F5.0
tp10085
a(I24
F4.0
tp10086
a(I99
F4.0
tp10087
aa(lp10088
(I88
F5.0
tp10089
a(I136
F5.0
tp10090
a(I189
F5.0
tp10091
a(I212
F5.0
tp10092
a(I380
F5.0
tp10093
a(I427
F5.0
tp10094
a(I506
F5.0
tp10095
a(I706
F5.0
tp10096
a(I854
F5.0
tp10097
a(I971
F5.0
tp10098
aa(lp10099
(I8
F5.0
tp10100
a(I14
F5.0
tp10101
a(I21
F5.0
tp10102
a(I56
F5.0
tp10103
a(I57
F5.0
tp10104
a(I63
F5.0
tp10105
a(I81
F5.0
tp10106
a(I92
F5.0
tp10107
a(I97
F5.0
tp10108
a(I99
F5.0
tp10109
aa(lp10110
(I312
F5.0
tp10111
a(I257
F4.0
tp10112
a(I301
F4.0
tp10113
a(I309
F4.0
tp10114
a(I332
F4.0
tp10115
a(I339
F4.0
tp10116
a(I345
F4.0
tp10117
a(I346
F4.0
tp10118
a(I349
F4.0
tp10119
a(I1611
F4.0
tp10120
aa(lp10121
(I65
F5.0
tp10122
a(I120
F5.0
tp10123
a(I132
F5.0
tp10124
a(I142
F5.0
tp10125
a(I172
F5.0
tp10126
a(I173
F5.0
tp10127
a(I180
F5.0
tp10128
a(I195
F5.0
tp10129
a(I221
F5.0
tp10130
a(I312
F5.0
tp10131
aa(lp10132
(I0
F5.0
tp10133
a(I10
F5.0
tp10134
a(I21
F5.0
tp10135
a(I49
F5.0
tp10136
a(I88
F5.0
tp10137
a(I97
F5.0
tp10138
a(I150
F5.0
tp10139
a(I171
F5.0
tp10140
a(I172
F5.0
tp10141
a(I173
F5.0
tp10142
aa(lp10143
(I49
F5.0
tp10144
a(I99
F5.0
tp10145
a(I128
F5.0
tp10146
a(I167
F5.0
tp10147
a(I173
F5.0
tp10148
a(I180
F5.0
tp10149
a(I256
F5.0
tp10150
a(I272
F5.0
tp10151
a(I275
F5.0
tp10152
a(I287
F5.0
tp10153
aa(lp10154
(I0
F5.0
tp10155
a(I49
F5.0
tp10156
a(I70
F5.0
tp10157
a(I172
F5.0
tp10158
a(I173
F5.0
tp10159
a(I177
F5.0
tp10160
a(I194
F5.0
tp10161
a(I317
F5.0
tp10162
a(I432
F5.0
tp10163
a(I495
F5.0
tp10164
aa(lp10165
(I287
F5.0
tp10166
a(I4
F4.0
tp10167
a(I97
F4.0
tp10168
a(I184
F4.0
tp10169
a(I217
F4.0
tp10170
a(I322
F4.0
tp10171
a(I323
F4.0
tp10172
a(I324
F4.0
tp10173
a(I331
F4.0
tp10174
a(I446
F4.0
tp10175
aa(lp10176
(I268
F5.0
tp10177
a(I271
F5.0
tp10178
a(I257
F4.0
tp10179
a(I285
F4.0
tp10180
a(I301
F4.0
tp10181
a(I314
F4.0
tp10182
a(I339
F4.0
tp10183
a(I236
F3.0
tp10184
a(I244
F3.0
tp10185
a(I261
F3.0
tp10186
aa(lp10187
(I0
F5.0
tp10188
a(I10
F5.0
tp10189
a(I14
F5.0
tp10190
a(I28
F5.0
tp10191
a(I37
F5.0
tp10192
a(I63
F5.0
tp10193
a(I70
F5.0
tp10194
a(I71
F5.0
tp10195
a(I94
F5.0
tp10196
a(I95
F5.0
tp10197
aa(lp10198
(I7
F5.0
tp10199
a(I8
F5.0
tp10200
a(I47
F5.0
tp10201
a(I97
F5.0
tp10202
a(I113
F5.0
tp10203
a(I126
F5.0
tp10204
a(I133
F5.0
tp10205
a(I164
F5.0
tp10206
a(I167
F5.0
tp10207
a(I171
F5.0
tp10208
aa(lp10209
(I21
F5.0
tp10210
a(I88
F5.0
tp10211
a(I97
F5.0
tp10212
a(I126
F5.0
tp10213
a(I134
F5.0
tp10214
a(I184
F5.0
tp10215
a(I186
F5.0
tp10216
a(I514
F5.0
tp10217
a(I516
F5.0
tp10218
a(I520
F5.0
tp10219
aa(lp10220
(I112
F5.0
tp10221
a(I115
F5.0
tp10222
a(I125
F5.0
tp10223
a(I164
F5.0
tp10224
a(I13
F4.0
tp10225
a(I44
F4.0
tp10226
a(I63
F4.0
tp10227
a(I105
F4.0
tp10228
a(I120
F4.0
tp10229
a(I189
F4.0
tp10230
aa(lp10231
(I126
F5.0
tp10232
a(I271
F5.0
tp10233
a(I274
F5.0
tp10234
a(I285
F5.0
tp10235
a(I299
F5.0
tp10236
a(I314
F5.0
tp10237
a(I315
F5.0
tp10238
a(I332
F5.0
tp10239
a(I514
F5.0
tp10240
a(I749
F5.0
tp10241
aa(lp10242
(I8
F5.0
tp10243
a(I44
F5.0
tp10244
a(I88
F5.0
tp10245
a(I97
F5.0
tp10246
a(I99
F5.0
tp10247
a(I113
F5.0
tp10248
a(I118
F5.0
tp10249
a(I134
F5.0
tp10250
a(I135
F5.0
tp10251
a(I153
F5.0
tp10252
aa(lp10253
(I21
F5.0
tp10254
a(I55
F5.0
tp10255
a(I63
F5.0
tp10256
a(I97
F5.0
tp10257
a(I99
F5.0
tp10258
a(I126
F5.0
tp10259
a(I178
F5.0
tp10260
a(I179
F5.0
tp10261
a(I473
F5.0
tp10262
a(I6
F4.0
tp10263
aa(lp10264
(I3
F5.0
tp10265
a(I12
F5.0
tp10266
a(I49
F5.0
tp10267
a(I55
F5.0
tp10268
a(I68
F5.0
tp10269
a(I88
F5.0
tp10270
a(I152
F5.0
tp10271
a(I171
F5.0
tp10272
a(I173
F5.0
tp10273
a(I190
F5.0
tp10274
aa(lp10275
(I14
F5.0
tp10276
a(I236
F5.0
tp10277
a(I273
F5.0
tp10278
a(I280
F5.0
tp10279
a(I285
F5.0
tp10280
a(I312
F5.0
tp10281
a(I741
F5.0
tp10282
a(I863
F5.0
tp10283
a(I116
F4.0
tp10284
a(I117
F4.0
tp10285
aa(lp10286
(I5
F5.0
tp10287
a(I18
F5.0
tp10288
a(I19
F5.0
tp10289
a(I92
F5.0
tp10290
a(I126
F5.0
tp10291
a(I235
F5.0
tp10292
a(I248
F5.0
tp10293
a(I249
F5.0
tp10294
a(I252
F5.0
tp10295
a(I254
F5.0
tp10296
aa(lp10297
(I8
F5.0
tp10298
a(I49
F5.0
tp10299
a(I407
F5.0
tp10300
a(I514
F5.0
tp10301
a(I13
F4.0
tp10302
a(I92
F4.0
tp10303
a(I115
F4.0
tp10304
a(I123
F4.0
tp10305
a(I125
F4.0
tp10306
a(I223
F4.0
tp10307
aa(lp10308
(I49
F5.0
tp10309
a(I99
F5.0
tp10310
a(I105
F5.0
tp10311
a(I110
F5.0
tp10312
a(I117
F5.0
tp10313
a(I120
F5.0
tp10314
a(I126
F5.0
tp10315
a(I180
F5.0
tp10316
a(I221
F5.0
tp10317
a(I256
F5.0
tp10318
aa(lp10319
(I8
F5.0
tp10320
a(I14
F5.0
tp10321
a(I117
F5.0
tp10322
a(I120
F5.0
tp10323
a(I126
F5.0
tp10324
a(I219
F5.0
tp10325
a(I221
F5.0
tp10326
a(I236
F5.0
tp10327
a(I254
F5.0
tp10328
a(I256
F5.0
tp10329
aa(lp10330
(I7
F5.0
tp10331
a(I55
F5.0
tp10332
a(I94
F5.0
tp10333
a(I95
F5.0
tp10334
a(I193
F5.0
tp10335
a(I257
F5.0
tp10336
a(I299
F5.0
tp10337
a(I312
F5.0
tp10338
a(I353
F5.0
tp10339
a(I426
F5.0
tp10340
aa(lp10341
(I0
F5.0
tp10342
a(I116
F5.0
tp10343
a(I123
F5.0
tp10344
a(I180
F5.0
tp10345
a(I297
F5.0
tp10346
a(I407
F5.0
tp10347
a(I918
F5.0
tp10348
a(I6
F4.0
tp10349
a(I14
F4.0
tp10350
a(I146
F4.0
tp10351
aa(lp10352
(I30
F5.0
tp10353
a(I49
F5.0
tp10354
a(I70
F5.0
tp10355
a(I78
F5.0
tp10356
a(I94
F5.0
tp10357
a(I96
F5.0
tp10358
a(I98
F5.0
tp10359
a(I130
F5.0
tp10360
a(I171
F5.0
tp10361
a(I173
F5.0
tp10362
aa(lp10363
(I1
F5.0
tp10364
a(I11
F5.0
tp10365
a(I41
F5.0
tp10366
a(I54
F5.0
tp10367
a(I55
F5.0
tp10368
a(I63
F5.0
tp10369
a(I68
F5.0
tp10370
a(I78
F5.0
tp10371
a(I91
F5.0
tp10372
a(I97
F5.0
tp10373
aa.