(lp0
I452
aI131
aI90
aI209
aI86
aI26
aI392
aI219
aI299
aI89
aI236
aI267
aI184
aI183
aI293
aI39
aI92
aI10
aI69
aI72
aI84
aI297
aI182
aI174
aI293
aI73
aI57
aI276
aI114
aI37
aI154
aI81
aI97
aI7
aI11
aI13
aI8
aI120
aI87
aI57
aI37
aI148
aI40
aI79
aI80
aI27
aI133
aI117
aI81
aI583
aI81
aI91
aI128
aI104
aI149
aI394
aI40
aI175
aI83
aI64
aI59
aI127
aI82
aI283
aI115
aI162
aI103
aI134
aI321
aI251
aI220
aI129
aI128
aI7
aI5
aI54
aI151
aI33
aI336
aI68
aI110
aI261
aI176
aI18
aI58
aI150
aI138
aI213
aI275
aI95
aI143
aI104
aI112
aI137
aI219
aI295
aI256
aI390
aI172
aI508
aI73
aI54
aI15
aI5
aI74
aI71
aI42
aI65
aI130
aI31
aI272
aI20
aI9
aI67
aI15
aI125
aI378
aI293
aI4
aI67
aI429
aI106
aI115
aI187
aI244
aI97
aI413
aI65
aI129
aI23
aI95
aI246
aI171
aI198
aI259
aI105
aI171
aI19
aI50
aI61
aI72
aI57
aI222
aI243
aI65
aI10
aI185
aI128
aI23
aI157
aI326
aI82
aI247
aI174
aI98
aI148
aI127
aI60
aI101
aI69
aI220
aI106
aI92
aI151
aI64
aI58
aI67
aI316
aI118
aI121
aI65
aI367
aI324
aI420
aI208
aI284
aI137
aI125
aI221
aI221
aI507
aI226
aI291
aI116
aI239
aI251
aI209
aI170
aI66
aI124
aI276
aI116
aI157
aI241
aI301
aI251
aI239
aI127
aI165
aI206
aI89
aI280
aI182
aI350
aI136
aI50
aI66
aI200
aI191
aI331
aI206
aI92
aI134
aI114
aI212
aI290
aI120
aI171
aI111
aI66
aI74
aI365
aI136
aI44
aI109
aI166
aI161
aI244
aI171
aI199
aI142
aI101
aI124
aI280
aI217
aI45
aI384
aI256
aI150
aI156
aI128
aI117
aI132
aI48
aI240
aI124
aI5
aI160
aI130
aI197
aI46
aI158
aI26
aI62
aI172
aI16
aI303
aI509
aI162
aI127
aI43
aI66
aI19
aI101
aI227
aI35
aI9
aI255
aI315
aI136
aI211
aI198
aI223
aI190
aI268
aI298
aI71
aI60
aI28
aI85
aI146
aI232
aI177
aI193
aI162
aI481
aI78
aI478
aI259
aI96
aI127
aI114
aI147
aI485
aI77
aI6
aI50
aI194
aI73
aI431
aI230
aI297
aI134
aI149
aI87
aI96
aI188
aI30
aI28
aI145
aI75
aI80
aI350
aI5
aI160
aI112
aI102
aI298
aI168
aI20
aI169
aI218
aI240
aI125
aI128
aI175
aI175
aI295
aI45
aI41
aI113
aI143
aI251
aI64
aI21
aI43
aI18
aI91
aI47
aI189
aI11
aI52
aI124
aI55
aI65
aI126
aI137
aI27
aI31
aI41
aI20
aI26
aI14
aI72
aI41
aI97
aI264
aI143
aI18
aI10
aI10
aI28
aI47
aI37
aI48
aI47
aI170
aI31
aI55
aI39
aI67
aI34
aI39
aI11
aI23
aI24
aI13
aI101
aI43
aI116
aI100
aI111
aI31
aI69
aI208
aI87
aI65
aI28
aI27
aI10
aI59
aI68
aI192
aI12
aI56
aI54
aI12
aI26
aI89
aI18
aI76
aI170
aI201
aI101
aI344
aI49
aI43
aI112
aI70
aI162
aI163
aI93
aI55
aI62
aI25
aI64
aI73
aI129
aI178
aI81
aI106
aI26
aI300
aI19
aI85
aI32
aI219
aI121
aI97
aI93
aI153
aI174
aI171
aI67
aI216
aI99
aI5
aI6
aI5
aI14
aI53
aI4
aI162
aI46
aI22
aI9
aI121
aI85
aI117
aI63
aI170
aI66
aI16
aI16
aI145
aI48
aI27
aI90
aI24
aI28
aI74
aI148
aI71
aI27
aI85
aI52
aI48
aI64
aI67
aI108
aI221
aI158
aI126
aI194
aI250
aI160
aI95
aI104
aI179
aI179
aI63
aI128
aI243
aI138
aI125
aI64
aI68
aI65
aI52
aI50
aI67
aI59
aI60
aI56
aI59
aI231
aI68
aI152
aI62
aI31
aI123
aI57
aI39
aI122
aI68
aI90
aI98
aI215
aI121
aI121
aI173
aI57
aI72
aI180
aI201
aI63
aI91
aI89
aI80
aI124
aI120
aI35
aI164
aI46
aI73
aI124
aI195
aI121
aI93
aI80
aI129
aI22
aI15
aI13
aI54
aI10
aI30
aI66
aI44
aI43
aI49
aI51
aI21
aI71
aI12
aI254
aI41
aI12
aI92
aI151
aI24
aI45
aI63
aI102
aI10
aI12
aI17
aI70
aI137
aI22
aI59
aI48
aI29
aI27
aI22
aI179
aI35
aI230
aI67
aI50
aI28
aI29
aI33
aI15
aI44
aI93
aI41
aI92
aI19
aI32
aI59
aI168
aI37
aI79
aI39
aI34
aI14
aI202
aI43
aI18
aI178
aI9
aI12
aI5
aI64
aI127
aI206
aI4
aI1
aI2
aI20
aI50
aI209
aI81
aI31
aI66
aI66
aI30
aI60
aI41
aI40
aI34
aI27
aI51
aI59
aI64
aI18
aI18
aI64
aI43
aI11
aI39
aI39
aI22
aI82
aI4
aI75
aI169
aI77
aI31
aI119
aI58
aI69
aI24
aI23
aI91
aI38
aI44
aI40
aI82
aI33
aI89
aI4
aI35
aI27
aI38
aI70
aI67
aI50
aI72
aI171
aI90
aI34
aI147
aI227
aI44
aI131
aI79
aI115
aI153
aI88
aI82
aI116
aI46
aI100
aI5
aI12
aI6
aI13
aI36
aI46
aI65
aI86
aI48
aI54
aI77
aI1
aI219
aI107
aI34
aI27
aI100
aI49
aI169
aI157
aI50
aI69
aI44
aI87
aI155
aI16
aI164
aI91
aI44
aI13
aI79
aI40
aI10
aI102
aI15
aI10
aI53
aI19
aI24
aI137
aI6
aI70
aI101
aI104
aI79
aI1
aI51
aI72
aI13
aI87
aI58
aI82
aI16
aI29
aI86
aI54
aI58
aI34
aI76
aI16
aI14
aI63
aI45
aI81
aI24
aI39
aI180
aI15
aI27
aI137
aI78
aI59
aI31
aI164
aI63
aI58
aI267
aI39
aI92
aI16
aI119
aI102
aI316
aI51
aI124
aI180
aI39
aI24
aI57
aI96
aI128
aI4
aI21
aI11
aI46
aI44
aI115
aI149
aI29
aI32
aI9
aI11
aI52
aI42
aI57
aI41
aI49
aI17
aI32
aI26
aI9
aI4
aI76
aI31
aI69
aI84
aI10
aI37
aI2
aI39
aI14
aI13
aI3
aI47
aI66
aI10
aI86
aI10
aI46
aI21
aI36
aI31
aI9
aI5
aI26
aI16
aI40
aI9
aI8
aI27
aI50
aI9
aI31
aI43
aI45
aI18
aI18
aI56
aI1
aI112
aI21
aI3
aI25
aI40
aI93
aI22
aI4
aI82
aI49
aI83
aI80
aI57
aI13
aI34
aI1
aI91
aI22
aI49
aI25
aI15
aI26
aI25
aI4
aI4
aI53
aI48
aI27
aI30
aI42
aI176
aI44
aI55
aI9
aI53
aI4
aI4
aI1
aI14
aI16
aI66
aI36
aI1
aI3
aI15
aI16
aI3
aI18
aI24
aI86
aI21
aI119
aI6
aI5
aI24
aI9
aI75
aI42
aI81
aI39
aI53
aI47
aI52
aI33
aI136
aI59
aI45
aI34
aI13
aI7
aI13
aI53
aI64
aI15
aI13
aI43
aI6
aI53
aI14
aI19
aI106
aI44
aI2
aI58
aI9
aI42
aI12
aI42
aI18
aI20
aI27
aI21
aI2
aI20
aI13
aI4
aI4
aI9
aI2
aI11
aI13
aI18
aI7
aI8
aI96
aI5
aI46
aI34
aI58
aI85
aI34
aI101
aI6
aI104
aI40
aI80
aI57
aI40
aI21
aI68
aI7
aI32
aI37
aI25
aI60
aI32
aI46
aI45
aI40
aI43
aI40
aI61
aI17
aI48
aI71
aI30
aI39
aI45
aI22
aI11
aI49
aI46
aI2
aI14
aI64
aI25
aI34
aI23
aI41
aI9
aI21
aI26
aI12
aI18
aI75
aI8
aI34
aI28
aI4
aI32
aI44
aI12
aI49
aI27
aI35
aI22
aI8
aI20
aI15
aI44
aI22
aI23
aI4
aI86
aI32
aI33
aI25
aI4
aI66
aI7
aI31
aI14
aI16
aI16
aI10
aI10
aI17
aI8
aI8
aI9
aI22
aI23
aI47
aI37
aI64
aI44
aI93
aI100
aI38
aI98
aI12
aI137
aI50
aI32
aI31
aI35
aI38
aI32
aI31
aI15
aI44
aI4
aI3
aI148
aI14
aI20
aI7
aI16
aI32
aI27
aI68
aI24
aI24
aI17
aI90
aI25
aI62
aI28
aI8
aI40
aI25
aI46
aI134
aI73
aI25
aI43
aI41
aI25
aI24
aI23
aI10
aI10
aI22
aI15
aI35
aI39
aI29
aI12
aI41
aI4
aI53
aI16
aI44
aI12
aI18
aI27
aI16
aI7
aI66
aI77
aI7
aI12
aI8
aI22
aI45
aI2
aI8
aI8
aI6
aI21
aI11
aI21
aI10
aI13
aI38
aI37
aI43
aI12
aI23
aI12
aI29
aI3
aI18
aI42
aI13
aI8
aI74
aI7
aI19
aI4
aI18
aI4
aI18
aI5
aI28
aI41
aI7
aI15
aI22
aI10
aI29
aI13
aI19
aI47
aI59
aI17
aI21
aI1
aI3
aI12
aI4
aI32
aI11
aI13
aI28
aI1
aI13
aI32
aI30
aI38
aI46
aI29
aI29
aI5
aI33
aI17
aI9
aI44
aI15
aI3
aI9
aI3
aI21
aI9
aI26
aI9
aI7
aI28
aI19
aI12
aI3
aI1
aI25
aI4
aI11
aI26
aI13
aI5
aI25
aI6
aI14
aI12
aI11
aI22
aI10
aI27
aI14
aI15
aI7
aI8
aI5
aI22
aI7
aI19
aI9
aI10
aI10
aI13
aI19
aI10
aI18
aI3
aI13
aI44
aI3
aI11
aI3
aI13
aI10
aI31
aI11
aI3
aI45
aI7
aI23
aI7
aI1
aI8
aI21
aI18
aI6
aI19
aI17
aI20
aI15
aI38
aI12
aI6
aI6
aI9
aI30
aI6
aI39
aI26
aI20
aI30
aI39
aI25
aI4
aI12
aI14
aI32
aI8
aI48
aI13
aI18
aI22
aI17
aI6
aI8
aI1
aI1
aI6
aI8
aI18
aI26
aI6
aI5
aI7
aI36
aI19
aI7
aI6
aI19
aI12
aI6
aI8
aI9
aI7
aI11
aI8
aI3
aI4
aI23
aI4
aI4
aI4
aI8
aI15
aI7
aI19
aI12
aI33
aI10
aI10
aI7
aI7
aI5
aI15
aI11
aI4
aI8
aI19
aI16
aI9
aI16
aI13
aI9
aI19
aI26
aI15
aI17
aI6
aI7
aI7
aI2
aI15
aI3
aI3
aI7
aI7
aI20
aI12
aI9
aI8
aI9
aI5
aI5
aI18
aI2
aI7
aI2
aI2
aI2
aI1
aI1
aI16
aI7
aI14
aI11
aI23
aI7
aI4
aI3
aI4
aI1
aI2
aI6
aI3
aI5
aI1
aI6
aI3
aI6
aI1
aI4
aI4
aI2
aI5
aI2
aI11
aI10
aI9
aI4
aI1
aI1
aI1
aI2
aI1
aI5
aI2
aI5
aI4
aI1
aI1
aI2
aI3
aI1
aI5
aI2
aI6
aI3
aI3
aI2
aI2
aI2
aI3
aI2
aI1
aI1
aI2
aI1
aI5
aI6
aI4
aI3
aI2
aI3
aI1
aI2
aI10
aI7
aI4
aI5
aI7
aI6
aI8
aI4
aI6
aI3
aI5
aI6
aI3
aI6
aI3
aI2
aI3
aI5
aI9
aI7
aI6
aI5
aI5
aI2
aI7
aI10
aI18
aI4
aI4
aI13
aI6
aI5
aI20
aI3
aI7
aI4
aI28
aI6
aI8
aI1
aI9
aI5
aI2
aI3
aI16
aI3
aI11
aI4
aI4
aI3
aI10
aI8
aI5
aI12
aI4
aI3
aI5
aI3
aI2
aI10
aI7
aI2
aI9
aI5
aI8
aI5
aI7
aI5
aI4
aI19
aI4
aI15
aI1
aI3
aI8
aI2
aI15
aI1
aI1
aI6
aI2
aI7
aI1
aI1
aI7
aI1
aI1
aI7
aI3
aI3
aI3
aI6
aI2
aI6
aI12
aI5
aI9
aI2
aI9
aI6
aI8
aI1
aI2
aI18
aI8
aI11
aI2
aI1
aI12
aI3
aI4
aI1
aI5
aI4
aI5
aI3
aI2
aI1
aI1
aI1
aI5
aI5
aI2
aI1
aI4
aI2
aI5
aI2
aI10
aI3
aI1
aI3
aI1
aI3
aI5
aI1
aI5
aI6
aI3
aI7
aI1
aI3
aI5
aI12
aI2
aI1
aI4
aI7
aI2
aI8
aI1
aI1
aI7
aI3
aI5
aI5
aI7
aI2
aI1
aI6
aI4
aI1
aI4
aI3
aI4
aI10
aI2
aI2
aI1
aI3
aI4
aI1
aI2
aI1
aI2
aI2
aI2
aI3
aI4
aI2
aI5
aI2
aI1
aI7
aI1
aI4
aI1
aI1
aI1
aI1
aI1
aI1
aI1
aI1
aI1
aI1
aI1
aI1
aI2
aI1
aI1
aI1
aI1
aI2
aI1
aI1
aI1
aI1
aI1
aI1
aI2
aI1
aI1
aI2
aI4
aI2
aI6
aI5
aI1
aI2
aI1
aI1
aI5
aI6
aI1
aI4
aI1
aI3
aI1
aI1
aI4
aI1
aI3
aI4
aI3
aI3
aI2
aI4
aI1
aI1
aI10
aI1
aI2
aI1
aI1
aI9
aI1
aI3
aI3
aI1
aI1
aI1
aI1
aI4
aI2
aI1
aI2
aI1
aI1
aI1
aI1
aI1
aI1
aI1
aI3
aI1
aI1
aI2
aI4
aI2
aI1
aI2
aI1
aI1
aI1
aI1
aI1
aI3
aI1
aI1
aI1
aI2
aI1
aI3
aI1
aI1
aI1
aI2
aI1
aI4
aI1
aI1
aI1
aI1
aI1
aI1
aI1
aI2
aI1
aI1
aI1
aI1
aI1
aI1
aI1
aI1
aI1
aI1
a.