(dp0
I1
(dp1
S'gender'
p2
S'M'
p3
sS'age'
p4
I24
sS'occupation'
p5
S'technician'
p6
ssI2
(dp7
g2
S'F'
p8
sg4
I53
sg5
S'other'
p9
ssI3
(dp10
g2
g3
sg4
I23
sg5
S'writer'
p11
ssI4
(dp12
g2
g3
sg4
I24
sg5
S'technician'
p13
ssI5
(dp14
g2
g8
sg4
I33
sg5
S'other'
p15
ssI6
(dp16
g2
g3
sg4
I42
sg5
S'executive'
p17
ssI7
(dp18
g2
g3
sg4
I57
sg5
S'administrator'
p19
ssI8
(dp20
g2
g3
sg4
I36
sg5
S'administrator'
p21
ssI9
(dp22
g2
g3
sg4
I29
sg5
S'student'
p23
ssI10
(dp24
g2
g3
sg4
I53
sg5
S'lawyer'
p25
ssI11
(dp26
g2
g8
sg4
I39
sg5
S'other'
p27
ssI12
(dp28
g2
g8
sg4
I28
sg5
S'other'
p29
ssI13
(dp30
g2
g3
sg4
I47
sg5
S'educator'
p31
ssI14
(dp32
g2
g3
sg4
I45
sg5
S'scientist'
p33
ssI15
(dp34
g2
g8
sg4
I49
sg5
S'educator'
p35
ssI16
(dp36
g2
g3
sg4
I21
sg5
S'entertainment'
p37
ssI17
(dp38
g2
g3
sg4
I30
sg5
S'programmer'
p39
ssI18
(dp40
g2
g8
sg4
I35
sg5
S'other'
p41
ssI19
(dp42
g2
g3
sg4
I40
sg5
S'librarian'
p43
ssI20
(dp44
g2
g8
sg4
I42
sg5
S'homemaker'
p45
ssI21
(dp46
g2
g3
sg4
I26
sg5
S'writer'
p47
ssI22
(dp48
g2
g3
sg4
I25
sg5
S'writer'
p49
ssI23
(dp50
g2
g8
sg4
I30
sg5
S'artist'
p51
ssI24
(dp52
g2
g8
sg4
I21
sg5
S'artist'
p53
ssI25
(dp54
g2
g3
sg4
I39
sg5
S'engineer'
p55
ssI26
(dp56
g2
g3
sg4
I49
sg5
S'engineer'
p57
ssI27
(dp58
g2
g8
sg4
I40
sg5
S'librarian'
p59
ssI28
(dp60
g2
g3
sg4
I32
sg5
S'writer'
p61
ssI29
(dp62
g2
g3
sg4
I41
sg5
S'programmer'
p63
ssI30
(dp64
g2
g3
sg4
I7
sg5
S'student'
p65
ssI31
(dp66
g2
g3
sg4
I24
sg5
S'artist'
p67
ssI32
(dp68
g2
g8
sg4
I28
sg5
S'student'
p69
ssI33
(dp70
g2
g3
sg4
I23
sg5
S'student'
p71
ssI34
(dp72
g2
g8
sg4
I38
sg5
S'administrator'
p73
ssI35
(dp74
g2
g8
sg4
I20
sg5
S'homemaker'
p75
ssI36
(dp76
g2
g8
sg4
I19
sg5
S'student'
p77
ssI37
(dp78
g2
g3
sg4
I23
sg5
S'student'
p79
ssI38
(dp80
g2
g8
sg4
I28
sg5
S'other'
p81
ssI39
(dp82
g2
g3
sg4
I41
sg5
S'entertainment'
p83
ssI40
(dp84
g2
g3
sg4
I38
sg5
S'scientist'
p85
ssI41
(dp86
g2
g3
sg4
I33
sg5
S'engineer'
p87
ssI42
(dp88
g2
g3
sg4
I30
sg5
S'administrator'
p89
ssI43
(dp90
g2
g8
sg4
I29
sg5
S'librarian'
p91
ssI44
(dp92
g2
g3
sg4
I26
sg5
S'technician'
p93
ssI45
(dp94
g2
g3
sg4
I29
sg5
S'programmer'
p95
ssI46
(dp96
g2
g8
sg4
I27
sg5
S'marketing'
p97
ssI47
(dp98
g2
g3
sg4
I53
sg5
S'marketing'
p99
ssI48
(dp100
g2
g3
sg4
I45
sg5
S'administrator'
p101
ssI49
(dp102
g2
g8
sg4
I23
sg5
S'student'
p103
ssI50
(dp104
g2
g3
sg4
I21
sg5
S'writer'
p105
ssI51
(dp106
g2
g3
sg4
I28
sg5
S'educator'
p107
ssI52
(dp108
g2
g8
sg4
I18
sg5
S'student'
p109
ssI53
(dp110
g2
g3
sg4
I26
sg5
S'programmer'
p111
ssI54
(dp112
g2
g3
sg4
I22
sg5
S'executive'
p113
ssI55
(dp114
g2
g3
sg4
I37
sg5
S'programmer'
p115
ssI56
(dp116
g2
g3
sg4
I25
sg5
S'librarian'
p117
ssI57
(dp118
g2
g3
sg4
I16
sg5
S'none'
p119
ssI58
(dp120
g2
g3
sg4
I27
sg5
S'programmer'
p121
ssI59
(dp122
g2
g3
sg4
I49
sg5
S'educator'
p123
ssI60
(dp124
g2
g3
sg4
I50
sg5
S'healthcare'
p125
ssI61
(dp126
g2
g3
sg4
I36
sg5
S'engineer'
p127
ssI62
(dp128
g2
g8
sg4
I27
sg5
S'administrator'
p129
ssI63
(dp130
g2
g3
sg4
I31
sg5
S'marketing'
p131
ssI64
(dp132
g2
g3
sg4
I32
sg5
S'educator'
p133
ssI65
(dp134
g2
g8
sg4
I51
sg5
S'educator'
p135
ssI66
(dp136
g2
g3
sg4
I23
sg5
S'student'
p137
ssI67
(dp138
g2
g3
sg4
I17
sg5
S'student'
p139
ssI68
(dp140
g2
g3
sg4
I19
sg5
S'student'
p141
ssI69
(dp142
g2
g3
sg4
I24
sg5
S'engineer'
p143
ssI70
(dp144
g2
g3
sg4
I27
sg5
S'engineer'
p145
ssI71
(dp146
g2
g3
sg4
I39
sg5
S'scientist'
p147
ssI72
(dp148
g2
g8
sg4
I48
sg5
S'administrator'
p149
ssI73
(dp150
g2
g3
sg4
I24
sg5
S'student'
p151
ssI74
(dp152
g2
g3
sg4
I39
sg5
S'scientist'
p153
ssI75
(dp154
g2
g3
sg4
I24
sg5
S'entertainment'
p155
ssI76
(dp156
g2
g3
sg4
I20
sg5
S'student'
p157
ssI77
(dp158
g2
g3
sg4
I30
sg5
S'technician'
p159
ssI78
(dp160
g2
g3
sg4
I26
sg5
S'administrator'
p161
ssI79
(dp162
g2
g8
sg4
I39
sg5
S'administrator'
p163
ssI80
(dp164
g2
g8
sg4
I34
sg5
S'administrator'
p165
ssI81
(dp166
g2
g3
sg4
I21
sg5
S'student'
p167
ssI82
(dp168
g2
g3
sg4
I50
sg5
S'programmer'
p169
ssI83
(dp170
g2
g3
sg4
I40
sg5
S'other'
p171
ssI84
(dp172
g2
g3
sg4
I32
sg5
S'executive'
p173
ssI85
(dp174
g2
g3
sg4
I51
sg5
S'educator'
p175
ssI86
(dp176
g2
g3
sg4
I26
sg5
S'administrator'
p177
ssI87
(dp178
g2
g3
sg4
I47
sg5
S'administrator'
p179
ssI88
(dp180
g2
g8
sg4
I49
sg5
S'librarian'
p181
ssI89
(dp182
g2
g8
sg4
I43
sg5
S'administrator'
p183
ssI90
(dp184
g2
g3
sg4
I60
sg5
S'educator'
p185
ssI91
(dp186
g2
g3
sg4
I55
sg5
S'marketing'
p187
ssI92
(dp188
g2
g3
sg4
I32
sg5
S'entertainment'
p189
ssI93
(dp190
g2
g3
sg4
I48
sg5
S'executive'
p191
ssI94
(dp192
g2
g3
sg4
I26
sg5
S'student'
p193
ssI95
(dp194
g2
g3
sg4
I31
sg5
S'administrator'
p195
ssI96
(dp196
g2
g8
sg4
I25
sg5
S'artist'
p197
ssI97
(dp198
g2
g3
sg4
I43
sg5
S'artist'
p199
ssI98
(dp200
g2
g8
sg4
I49
sg5
S'executive'
p201
ssI99
(dp202
g2
g3
sg4
I20
sg5
S'student'
p203
ssI100
(dp204
g2
g3
sg4
I36
sg5
S'executive'
p205
ssI101
(dp206
g2
g3
sg4
I15
sg5
S'student'
p207
ssI102
(dp208
g2
g3
sg4
I38
sg5
S'programmer'
p209
ssI103
(dp210
g2
g3
sg4
I26
sg5
S'student'
p211
ssI104
(dp212
g2
g3
sg4
I27
sg5
S'student'
p213
ssI105
(dp214
g2
g3
sg4
I24
sg5
S'engineer'
p215
ssI106
(dp216
g2
g3
sg4
I61
sg5
S'retired'
p217
ssI107
(dp218
g2
g3
sg4
I39
sg5
S'scientist'
p219
ssI108
(dp220
g2
g3
sg4
I44
sg5
S'educator'
p221
ssI109
(dp222
g2
g3
sg4
I29
sg5
S'other'
p223
ssI110
(dp224
g2
g3
sg4
I19
sg5
S'student'
p225
ssI111
(dp226
g2
g3
sg4
I57
sg5
S'engineer'
p227
ssI112
(dp228
g2
g3
sg4
I30
sg5
S'salesman'
p229
ssI113
(dp230
g2
g3
sg4
I47
sg5
S'executive'
p231
ssI114
(dp232
g2
g3
sg4
I27
sg5
S'programmer'
p233
ssI115
(dp234
g2
g3
sg4
I31
sg5
S'engineer'
p235
ssI116
(dp236
g2
g3
sg4
I40
sg5
S'healthcare'
p237
ssI117
(dp238
g2
g3
sg4
I20
sg5
S'student'
p239
ssI118
(dp240
g2
g3
sg4
I21
sg5
S'administrator'
p241
ssI119
(dp242
g2
g3
sg4
I32
sg5
S'programmer'
p243
ssI120
(dp244
g2
g8
sg4
I47
sg5
S'other'
p245
ssI121
(dp246
g2
g3
sg4
I54
sg5
S'librarian'
p247
ssI122
(dp248
g2
g8
sg4
I32
sg5
S'writer'
p249
ssI123
(dp250
g2
g8
sg4
I48
sg5
S'artist'
p251
ssI124
(dp252
g2
g3
sg4
I34
sg5
S'student'
p253
ssI125
(dp254
g2
g3
sg4
I30
sg5
S'lawyer'
p255
ssI126
(dp256
g2
g8
sg4
I28
sg5
S'lawyer'
p257
ssI127
(dp258
g2
g3
sg4
I33
sg5
S'none'
p259
ssI128
(dp260
g2
g8
sg4
I24
sg5
S'marketing'
p261
ssI129
(dp262
g2
g8
sg4
I36
sg5
S'marketing'
p263
ssI130
(dp264
g2
g3
sg4
I20
sg5
S'none'
p265
ssI131
(dp266
g2
g8
sg4
I59
sg5
S'administrator'
p267
ssI132
(dp268
g2
g3
sg4
I24
sg5
S'other'
p269
ssI133
(dp270
g2
g3
sg4
I53
sg5
S'engineer'
p271
ssI134
(dp272
g2
g3
sg4
I31
sg5
S'programmer'
p273
ssI135
(dp274
g2
g3
sg4
I23
sg5
S'student'
p275
ssI136
(dp276
g2
g3
sg4
I51
sg5
S'other'
p277
ssI137
(dp278
g2
g3
sg4
I50
sg5
S'educator'
p279
ssI138
(dp280
g2
g3
sg4
I46
sg5
S'doctor'
p281
ssI139
(dp282
g2
g3
sg4
I20
sg5
S'student'
p283
ssI140
(dp284
g2
g8
sg4
I30
sg5
S'student'
p285
ssI141
(dp286
g2
g3
sg4
I49
sg5
S'programmer'
p287
ssI142
(dp288
g2
g3
sg4
I13
sg5
S'other'
p289
ssI143
(dp290
g2
g3
sg4
I42
sg5
S'technician'
p291
ssI144
(dp292
g2
g3
sg4
I53
sg5
S'programmer'
p293
ssI145
(dp294
g2
g3
sg4
I31
sg5
S'entertainment'
p295
ssI146
(dp296
g2
g3
sg4
I45
sg5
S'artist'
p297
ssI147
(dp298
g2
g8
sg4
I40
sg5
S'librarian'
p299
ssI148
(dp300
g2
g3
sg4
I33
sg5
S'engineer'
p301
ssI149
(dp302
g2
g8
sg4
I35
sg5
S'marketing'
p303
ssI150
(dp304
g2
g8
sg4
I20
sg5
S'artist'
p305
ssI151
(dp306
g2
g8
sg4
I38
sg5
S'administrator'
p307
ssI152
(dp308
g2
g8
sg4
I33
sg5
S'educator'
p309
ssI153
(dp310
g2
g3
sg4
I25
sg5
S'student'
p311
ssI154
(dp312
g2
g3
sg4
I25
sg5
S'student'
p313
ssI155
(dp314
g2
g8
sg4
I32
sg5
S'other'
p315
ssI156
(dp316
g2
g3
sg4
I25
sg5
S'educator'
p317
ssI157
(dp318
g2
g3
sg4
I57
sg5
S'engineer'
p319
ssI158
(dp320
g2
g3
sg4
I50
sg5
S'educator'
p321
ssI159
(dp322
g2
g8
sg4
I23
sg5
S'student'
p323
ssI160
(dp324
g2
g3
sg4
I27
sg5
S'programmer'
p325
ssI161
(dp326
g2
g3
sg4
I50
sg5
S'lawyer'
p327
ssI162
(dp328
g2
g3
sg4
I25
sg5
S'artist'
p329
ssI163
(dp330
g2
g3
sg4
I49
sg5
S'administrator'
p331
ssI164
(dp332
g2
g3
sg4
I47
sg5
S'healthcare'
p333
ssI165
(dp334
g2
g8
sg4
I20
sg5
S'other'
p335
ssI166
(dp336
g2
g3
sg4
I47
sg5
S'educator'
p337
ssI167
(dp338
g2
g3
sg4
I37
sg5
S'other'
p339
ssI168
(dp340
g2
g3
sg4
I48
sg5
S'other'
p341
ssI169
(dp342
g2
g8
sg4
I52
sg5
S'other'
p343
ssI170
(dp344
g2
g8
sg4
I53
sg5
S'healthcare'
p345
ssI171
(dp346
g2
g8
sg4
I48
sg5
S'educator'
p347
ssI172
(dp348
g2
g3
sg4
I55
sg5
S'marketing'
p349
ssI173
(dp350
g2
g3
sg4
I56
sg5
S'other'
p351
ssI174
(dp352
g2
g8
sg4
I30
sg5
S'administrator'
p353
ssI175
(dp354
g2
g8
sg4
I26
sg5
S'scientist'
p355
ssI176
(dp356
g2
g3
sg4
I28
sg5
S'scientist'
p357
ssI177
(dp358
g2
g3
sg4
I20
sg5
S'programmer'
p359
ssI178
(dp360
g2
g3
sg4
I26
sg5
S'other'
p361
ssI179
(dp362
g2
g3
sg4
I15
sg5
S'entertainment'
p363
ssI180
(dp364
g2
g8
sg4
I22
sg5
S'administrator'
p365
ssI181
(dp366
g2
g3
sg4
I26
sg5
S'executive'
p367
ssI182
(dp368
g2
g3
sg4
I36
sg5
S'programmer'
p369
ssI183
(dp370
g2
g3
sg4
I33
sg5
S'scientist'
p371
ssI184
(dp372
g2
g3
sg4
I37
sg5
S'librarian'
p373
ssI185
(dp374
g2
g8
sg4
I53
sg5
S'librarian'
p375
ssI186
(dp376
g2
g8
sg4
I39
sg5
S'executive'
p377
ssI187
(dp378
g2
g3
sg4
I26
sg5
S'educator'
p379
ssI188
(dp380
g2
g3
sg4
I42
sg5
S'student'
p381
ssI189
(dp382
g2
g3
sg4
I32
sg5
S'artist'
p383
ssI190
(dp384
g2
g3
sg4
I30
sg5
S'administrator'
p385
ssI191
(dp386
g2
g3
sg4
I33
sg5
S'administrator'
p387
ssI192
(dp388
g2
g3
sg4
I42
sg5
S'educator'
p389
ssI193
(dp390
g2
g3
sg4
I29
sg5
S'student'
p391
ssI194
(dp392
g2
g3
sg4
I38
sg5
S'administrator'
p393
ssI195
(dp394
g2
g3
sg4
I42
sg5
S'scientist'
p395
ssI196
(dp396
g2
g3
sg4
I49
sg5
S'writer'
p397
ssI197
(dp398
g2
g3
sg4
I55
sg5
S'technician'
p399
ssI198
(dp400
g2
g8
sg4
I21
sg5
S'student'
p401
ssI199
(dp402
g2
g3
sg4
I30
sg5
S'writer'
p403
ssI200
(dp404
g2
g3
sg4
I40
sg5
S'programmer'
p405
ssI201
(dp406
g2
g3
sg4
I27
sg5
S'writer'
p407
ssI202
(dp408
g2
g8
sg4
I41
sg5
S'educator'
p409
ssI203
(dp410
g2
g8
sg4
I25
sg5
S'student'
p411
ssI204
(dp412
g2
g8
sg4
I52
sg5
S'librarian'
p413
ssI205
(dp414
g2
g3
sg4
I47
sg5
S'lawyer'
p415
ssI206
(dp416
g2
g8
sg4
I14
sg5
S'student'
p417
ssI207
(dp418
g2
g3
sg4
I39
sg5
S'marketing'
p419
ssI208
(dp420
g2
g3
sg4
I43
sg5
S'engineer'
p421
ssI209
(dp422
g2
g8
sg4
I33
sg5
S'educator'
p423
ssI210
(dp424
g2
g3
sg4
I39
sg5
S'engineer'
p425
ssI211
(dp426
g2
g3
sg4
I66
sg5
S'salesman'
p427
ssI212
(dp428
g2
g8
sg4
I49
sg5
S'educator'
p429
ssI213
(dp430
g2
g3
sg4
I33
sg5
S'executive'
p431
ssI214
(dp432
g2
g8
sg4
I26
sg5
S'librarian'
p433
ssI215
(dp434
g2
g3
sg4
I35
sg5
S'programmer'
p435
ssI216
(dp436
g2
g3
sg4
I22
sg5
S'engineer'
p437
ssI217
(dp438
g2
g3
sg4
I22
sg5
S'other'
p439
ssI218
(dp440
g2
g3
sg4
I37
sg5
S'administrator'
p441
ssI219
(dp442
g2
g3
sg4
I32
sg5
S'programmer'
p443
ssI220
(dp444
g2
g3
sg4
I30
sg5
S'librarian'
p445
ssI221
(dp446
g2
g3
sg4
I19
sg5
S'student'
p447
ssI222
(dp448
g2
g3
sg4
I29
sg5
S'programmer'
p449
ssI223
(dp450
g2
g8
sg4
I19
sg5
S'student'
p451
ssI224
(dp452
g2
g8
sg4
I31
sg5
S'educator'
p453
ssI225
(dp454
g2
g8
sg4
I51
sg5
S'administrator'
p455
ssI226
(dp456
g2
g3
sg4
I28
sg5
S'student'
p457
ssI227
(dp458
g2
g3
sg4
I46
sg5
S'executive'
p459
ssI228
(dp460
g2
g8
sg4
I21
sg5
S'student'
p461
ssI229
(dp462
g2
g8
sg4
I29
sg5
S'librarian'
p463
ssI230
(dp464
g2
g8
sg4
I28
sg5
S'student'
p465
ssI231
(dp466
g2
g3
sg4
I48
sg5
S'librarian'
p467
ssI232
(dp468
g2
g3
sg4
I45
sg5
S'scientist'
p469
ssI233
(dp470
g2
g3
sg4
I38
sg5
S'engineer'
p471
ssI234
(dp472
g2
g3
sg4
I60
sg5
S'retired'
p473
ssI235
(dp474
g2
g3
sg4
I37
sg5
S'educator'
p475
ssI236
(dp476
g2
g8
sg4
I44
sg5
S'writer'
p477
ssI237
(dp478
g2
g3
sg4
I49
sg5
S'administrator'
p479
ssI238
(dp480
g2
g8
sg4
I42
sg5
S'administrator'
p481
ssI239
(dp482
g2
g3
sg4
I39
sg5
S'artist'
p483
ssI240
(dp484
g2
g8
sg4
I23
sg5
S'educator'
p485
ssI241
(dp486
g2
g8
sg4
I26
sg5
S'student'
p487
ssI242
(dp488
g2
g3
sg4
I33
sg5
S'educator'
p489
ssI243
(dp490
g2
g3
sg4
I33
sg5
S'educator'
p491
ssI244
(dp492
g2
g3
sg4
I28
sg5
S'technician'
p493
ssI245
(dp494
g2
g3
sg4
I22
sg5
S'student'
p495
ssI246
(dp496
g2
g3
sg4
I19
sg5
S'student'
p497
ssI247
(dp498
g2
g3
sg4
I28
sg5
S'engineer'
p499
ssI248
(dp500
g2
g3
sg4
I25
sg5
S'student'
p501
ssI249
(dp502
g2
g3
sg4
I25
sg5
S'student'
p503
ssI250
(dp504
g2
g3
sg4
I29
sg5
S'executive'
p505
ssI251
(dp506
g2
g3
sg4
I28
sg5
S'doctor'
p507
ssI252
(dp508
g2
g3
sg4
I42
sg5
S'engineer'
p509
ssI253
(dp510
g2
g8
sg4
I26
sg5
S'librarian'
p511
ssI254
(dp512
g2
g3
sg4
I44
sg5
S'educator'
p513
ssI255
(dp514
g2
g3
sg4
I23
sg5
S'entertainment'
p515
ssI256
(dp516
g2
g8
sg4
I35
sg5
S'none'
p517
ssI257
(dp518
g2
g3
sg4
I17
sg5
S'student'
p519
ssI258
(dp520
g2
g8
sg4
I19
sg5
S'student'
p521
ssI259
(dp522
g2
g3
sg4
I21
sg5
S'student'
p523
ssI260
(dp524
g2
g8
sg4
I40
sg5
S'artist'
p525
ssI261
(dp526
g2
g3
sg4
I28
sg5
S'administrator'
p527
ssI262
(dp528
g2
g8
sg4
I19
sg5
S'student'
p529
ssI263
(dp530
g2
g3
sg4
I41
sg5
S'programmer'
p531
ssI264
(dp532
g2
g8
sg4
I36
sg5
S'writer'
p533
ssI265
(dp534
g2
g3
sg4
I26
sg5
S'executive'
p535
ssI266
(dp536
g2
g8
sg4
I62
sg5
S'administrator'
p537
ssI267
(dp538
g2
g3
sg4
I23
sg5
S'engineer'
p539
ssI268
(dp540
g2
g3
sg4
I24
sg5
S'engineer'
p541
ssI269
(dp542
g2
g8
sg4
I31
sg5
S'librarian'
p543
ssI270
(dp544
g2
g8
sg4
I18
sg5
S'student'
p545
ssI271
(dp546
g2
g3
sg4
I51
sg5
S'engineer'
p547
ssI272
(dp548
g2
g3
sg4
I33
sg5
S'scientist'
p549
ssI273
(dp550
g2
g8
sg4
I50
sg5
S'other'
p551
ssI274
(dp552
g2
g8
sg4
I20
sg5
S'student'
p553
ssI275
(dp554
g2
g3
sg4
I38
sg5
S'engineer'
p555
ssI276
(dp556
g2
g3
sg4
I21
sg5
S'student'
p557
ssI277
(dp558
g2
g8
sg4
I35
sg5
S'administrator'
p559
ssI278
(dp560
g2
g8
sg4
I37
sg5
S'librarian'
p561
ssI279
(dp562
g2
g3
sg4
I33
sg5
S'programmer'
p563
ssI280
(dp564
g2
g8
sg4
I30
sg5
S'librarian'
p565
ssI281
(dp566
g2
g8
sg4
I15
sg5
S'student'
p567
ssI282
(dp568
g2
g3
sg4
I22
sg5
S'administrator'
p569
ssI283
(dp570
g2
g3
sg4
I28
sg5
S'programmer'
p571
ssI284
(dp572
g2
g3
sg4
I40
sg5
S'executive'
p573
ssI285
(dp574
g2
g3
sg4
I25
sg5
S'programmer'
p575
ssI286
(dp576
g2
g3
sg4
I27
sg5
S'student'
p577
ssI287
(dp578
g2
g3
sg4
I21
sg5
S'salesman'
p579
ssI288
(dp580
g2
g3
sg4
I34
sg5
S'marketing'
p581
ssI289
(dp582
g2
g3
sg4
I11
sg5
S'none'
p583
ssI290
(dp584
g2
g3
sg4
I40
sg5
S'engineer'
p585
ssI291
(dp586
g2
g3
sg4
I19
sg5
S'student'
p587
ssI292
(dp588
g2
g8
sg4
I35
sg5
S'programmer'
p589
ssI293
(dp590
g2
g3
sg4
I24
sg5
S'writer'
p591
ssI294
(dp592
g2
g3
sg4
I34
sg5
S'technician'
p593
ssI295
(dp594
g2
g3
sg4
I31
sg5
S'educator'
p595
ssI296
(dp596
g2
g8
sg4
I43
sg5
S'administrator'
p597
ssI297
(dp598
g2
g8
sg4
I29
sg5
S'educator'
p599
ssI298
(dp600
g2
g3
sg4
I44
sg5
S'executive'
p601
ssI299
(dp602
g2
g3
sg4
I29
sg5
S'doctor'
p603
ssI300
(dp604
g2
g8
sg4
I26
sg5
S'programmer'
p605
ssI301
(dp606
g2
g3
sg4
I24
sg5
S'student'
p607
ssI302
(dp608
g2
g3
sg4
I42
sg5
S'educator'
p609
ssI303
(dp610
g2
g3
sg4
I19
sg5
S'student'
p611
ssI304
(dp612
g2
g8
sg4
I22
sg5
S'student'
p613
ssI305
(dp614
g2
g3
sg4
I23
sg5
S'programmer'
p615
ssI306
(dp616
g2
g3
sg4
I45
sg5
S'other'
p617
ssI307
(dp618
g2
g3
sg4
I25
sg5
S'student'
p619
ssI308
(dp620
g2
g3
sg4
I60
sg5
S'retired'
p621
ssI309
(dp622
g2
g3
sg4
I40
sg5
S'scientist'
p623
ssI310
(dp624
g2
g3
sg4
I37
sg5
S'educator'
p625
ssI311
(dp626
g2
g3
sg4
I32
sg5
S'technician'
p627
ssI312
(dp628
g2
g3
sg4
I48
sg5
S'other'
p629
ssI313
(dp630
g2
g3
sg4
I41
sg5
S'marketing'
p631
ssI314
(dp632
g2
g8
sg4
I20
sg5
S'student'
p633
ssI315
(dp634
g2
g3
sg4
I31
sg5
S'educator'
p635
ssI316
(dp636
g2
g8
sg4
I43
sg5
S'other'
p637
ssI317
(dp638
g2
g3
sg4
I22
sg5
S'administrator'
p639
ssI318
(dp640
g2
g3
sg4
I65
sg5
S'retired'
p641
ssI319
(dp642
g2
g3
sg4
I38
sg5
S'programmer'
p643
ssI320
(dp644
g2
g3
sg4
I19
sg5
S'student'
p645
ssI321
(dp646
g2
g8
sg4
I49
sg5
S'educator'
p647
ssI322
(dp648
g2
g3
sg4
I20
sg5
S'student'
p649
ssI323
(dp650
g2
g3
sg4
I21
sg5
S'student'
p651
ssI324
(dp652
g2
g8
sg4
I21
sg5
S'student'
p653
ssI325
(dp654
g2
g3
sg4
I48
sg5
S'technician'
p655
ssI326
(dp656
g2
g3
sg4
I41
sg5
S'administrator'
p657
ssI327
(dp658
g2
g3
sg4
I22
sg5
S'student'
p659
ssI328
(dp660
g2
g3
sg4
I51
sg5
S'administrator'
p661
ssI329
(dp662
g2
g3
sg4
I48
sg5
S'educator'
p663
ssI330
(dp664
g2
g8
sg4
I35
sg5
S'educator'
p665
ssI331
(dp666
g2
g3
sg4
I33
sg5
S'entertainment'
p667
ssI332
(dp668
g2
g3
sg4
I20
sg5
S'student'
p669
ssI333
(dp670
g2
g3
sg4
I47
sg5
S'other'
p671
ssI334
(dp672
g2
g3
sg4
I32
sg5
S'librarian'
p673
ssI335
(dp674
g2
g3
sg4
I45
sg5
S'executive'
p675
ssI336
(dp676
g2
g3
sg4
I23
sg5
S'salesman'
p677
ssI337
(dp678
g2
g3
sg4
I37
sg5
S'scientist'
p679
ssI338
(dp680
g2
g8
sg4
I39
sg5
S'librarian'
p681
ssI339
(dp682
g2
g3
sg4
I35
sg5
S'lawyer'
p683
ssI340
(dp684
g2
g3
sg4
I46
sg5
S'engineer'
p685
ssI341
(dp686
g2
g8
sg4
I17
sg5
S'student'
p687
ssI342
(dp688
g2
g8
sg4
I25
sg5
S'other'
p689
ssI343
(dp690
g2
g3
sg4
I43
sg5
S'engineer'
p691
ssI344
(dp692
g2
g8
sg4
I30
sg5
S'librarian'
p693
ssI345
(dp694
g2
g8
sg4
I28
sg5
S'librarian'
p695
ssI346
(dp696
g2
g3
sg4
I34
sg5
S'other'
p697
ssI347
(dp698
g2
g3
sg4
I18
sg5
S'student'
p699
ssI348
(dp700
g2
g8
sg4
I24
sg5
S'student'
p701
ssI349
(dp702
g2
g3
sg4
I68
sg5
S'retired'
p703
ssI350
(dp704
g2
g3
sg4
I32
sg5
S'student'
p705
ssI351
(dp706
g2
g3
sg4
I61
sg5
S'educator'
p707
ssI352
(dp708
g2
g8
sg4
I37
sg5
S'programmer'
p709
ssI353
(dp710
g2
g3
sg4
I25
sg5
S'scientist'
p711
ssI354
(dp712
g2
g8
sg4
I29
sg5
S'librarian'
p713
ssI355
(dp714
g2
g3
sg4
I25
sg5
S'student'
p715
ssI356
(dp716
g2
g8
sg4
I32
sg5
S'homemaker'
p717
ssI357
(dp718
g2
g3
sg4
I26
sg5
S'executive'
p719
ssI358
(dp720
g2
g3
sg4
I40
sg5
S'educator'
p721
ssI359
(dp722
g2
g3
sg4
I22
sg5
S'student'
p723
ssI360
(dp724
g2
g3
sg4
I51
sg5
S'other'
p725
ssI361
(dp726
g2
g3
sg4
I22
sg5
S'student'
p727
ssI362
(dp728
g2
g8
sg4
I35
sg5
S'homemaker'
p729
ssI363
(dp730
g2
g3
sg4
I20
sg5
S'student'
p731
ssI364
(dp732
g2
g3
sg4
I63
sg5
S'engineer'
p733
ssI365
(dp734
g2
g3
sg4
I29
sg5
S'lawyer'
p735
ssI366
(dp736
g2
g8
sg4
I20
sg5
S'student'
p737
ssI367
(dp738
g2
g3
sg4
I17
sg5
S'student'
p739
ssI368
(dp740
g2
g3
sg4
I18
sg5
S'student'
p741
ssI369
(dp742
g2
g3
sg4
I24
sg5
S'student'
p743
ssI370
(dp744
g2
g3
sg4
I52
sg5
S'writer'
p745
ssI371
(dp746
g2
g3
sg4
I36
sg5
S'engineer'
p747
ssI372
(dp748
g2
g8
sg4
I25
sg5
S'student'
p749
ssI373
(dp750
g2
g8
sg4
I24
sg5
S'other'
p751
ssI374
(dp752
g2
g3
sg4
I36
sg5
S'executive'
p753
ssI375
(dp754
g2
g3
sg4
I17
sg5
S'entertainment'
p755
ssI376
(dp756
g2
g8
sg4
I28
sg5
S'other'
p757
ssI377
(dp758
g2
g3
sg4
I22
sg5
S'student'
p759
ssI378
(dp760
g2
g3
sg4
I35
sg5
S'student'
p761
ssI379
(dp762
g2
g3
sg4
I44
sg5
S'programmer'
p763
ssI380
(dp764
g2
g3
sg4
I32
sg5
S'engineer'
p765
ssI381
(dp766
g2
g3
sg4
I33
sg5
S'artist'
p767
ssI382
(dp768
g2
g3
sg4
I45
sg5
S'engineer'
p769
ssI383
(dp770
g2
g3
sg4
I42
sg5
S'administrator'
p771
ssI384
(dp772
g2
g3
sg4
I52
sg5
S'programmer'
p773
ssI385
(dp774
g2
g3
sg4
I36
sg5
S'writer'
p775
ssI386
(dp776
g2
g3
sg4
I36
sg5
S'salesman'
p777
ssI387
(dp778
g2
g3
sg4
I33
sg5
S'entertainment'
p779
ssI388
(dp780
g2
g3
sg4
I31
sg5
S'other'
p781
ssI389
(dp782
g2
g8
sg4
I44
sg5
S'writer'
p783
ssI390
(dp784
g2
g8
sg4
I42
sg5
S'writer'
p785
ssI391
(dp786
g2
g3
sg4
I23
sg5
S'student'
p787
ssI392
(dp788
g2
g3
sg4
I52
sg5
S'writer'
p789
ssI393
(dp790
g2
g3
sg4
I19
sg5
S'student'
p791
ssI394
(dp792
g2
g3
sg4
I25
sg5
S'administrator'
p793
ssI395
(dp794
g2
g3
sg4
I43
sg5
S'other'
p795
ssI396
(dp796
g2
g3
sg4
I57
sg5
S'engineer'
p797
ssI397
(dp798
g2
g3
sg4
I17
sg5
S'student'
p799
ssI398
(dp800
g2
g3
sg4
I40
sg5
S'other'
p801
ssI399
(dp802
g2
g3
sg4
I25
sg5
S'other'
p803
ssI400
(dp804
g2
g8
sg4
I33
sg5
S'administrator'
p805
ssI401
(dp806
g2
g8
sg4
I46
sg5
S'healthcare'
p807
ssI402
(dp808
g2
g3
sg4
I30
sg5
S'engineer'
p809
ssI403
(dp810
g2
g3
sg4
I37
sg5
S'other'
p811
ssI404
(dp812
g2
g8
sg4
I29
sg5
S'programmer'
p813
ssI405
(dp814
g2
g8
sg4
I22
sg5
S'healthcare'
p815
ssI406
(dp816
g2
g3
sg4
I52
sg5
S'educator'
p817
ssI407
(dp818
g2
g3
sg4
I29
sg5
S'engineer'
p819
ssI408
(dp820
g2
g3
sg4
I23
sg5
S'student'
p821
ssI409
(dp822
g2
g3
sg4
I48
sg5
S'administrator'
p823
ssI410
(dp824
g2
g8
sg4
I30
sg5
S'artist'
p825
ssI411
(dp826
g2
g3
sg4
I34
sg5
S'educator'
p827
ssI412
(dp828
g2
g3
sg4
I25
sg5
S'educator'
p829
ssI413
(dp830
g2
g3
sg4
I55
sg5
S'educator'
p831
ssI414
(dp832
g2
g3
sg4
I24
sg5
S'programmer'
p833
ssI415
(dp834
g2
g3
sg4
I39
sg5
S'educator'
p835
ssI416
(dp836
g2
g8
sg4
I20
sg5
S'student'
p837
ssI417
(dp838
g2
g8
sg4
I27
sg5
S'other'
p839
ssI418
(dp840
g2
g8
sg4
I55
sg5
S'none'
p841
ssI419
(dp842
g2
g3
sg4
I37
sg5
S'lawyer'
p843
ssI420
(dp844
g2
g3
sg4
I53
sg5
S'educator'
p845
ssI421
(dp846
g2
g8
sg4
I38
sg5
S'programmer'
p847
ssI422
(dp848
g2
g3
sg4
I26
sg5
S'entertainment'
p849
ssI423
(dp850
g2
g3
sg4
I64
sg5
S'other'
p851
ssI424
(dp852
g2
g8
sg4
I36
sg5
S'marketing'
p853
ssI425
(dp854
g2
g3
sg4
I19
sg5
S'student'
p855
ssI426
(dp856
g2
g3
sg4
I55
sg5
S'educator'
p857
ssI427
(dp858
g2
g3
sg4
I51
sg5
S'doctor'
p859
ssI428
(dp860
g2
g3
sg4
I28
sg5
S'student'
p861
ssI429
(dp862
g2
g3
sg4
I27
sg5
S'student'
p863
ssI430
(dp864
g2
g3
sg4
I38
sg5
S'scientist'
p865
ssI431
(dp866
g2
g3
sg4
I24
sg5
S'marketing'
p867
ssI432
(dp868
g2
g3
sg4
I22
sg5
S'entertainment'
p869
ssI433
(dp870
g2
g3
sg4
I27
sg5
S'artist'
p871
ssI434
(dp872
g2
g8
sg4
I16
sg5
S'student'
p873
ssI435
(dp874
g2
g3
sg4
I24
sg5
S'engineer'
p875
ssI436
(dp876
g2
g8
sg4
I30
sg5
S'administrator'
p877
ssI437
(dp878
g2
g8
sg4
I27
sg5
S'other'
p879
ssI438
(dp880
g2
g8
sg4
I51
sg5
S'administrator'
p881
ssI439
(dp882
g2
g8
sg4
I23
sg5
S'administrator'
p883
ssI440
(dp884
g2
g3
sg4
I30
sg5
S'other'
p885
ssI441
(dp886
g2
g3
sg4
I50
sg5
S'technician'
p887
ssI442
(dp888
g2
g3
sg4
I22
sg5
S'student'
p889
ssI443
(dp890
g2
g3
sg4
I35
sg5
S'salesman'
p891
ssI444
(dp892
g2
g8
sg4
I51
sg5
S'lawyer'
p893
ssI445
(dp894
g2
g3
sg4
I21
sg5
S'writer'
p895
ssI446
(dp896
g2
g3
sg4
I57
sg5
S'educator'
p897
ssI447
(dp898
g2
g3
sg4
I30
sg5
S'administrator'
p899
ssI448
(dp900
g2
g3
sg4
I23
sg5
S'entertainment'
p901
ssI449
(dp902
g2
g3
sg4
I23
sg5
S'librarian'
p903
ssI450
(dp904
g2
g8
sg4
I35
sg5
S'educator'
p905
ssI451
(dp906
g2
g3
sg4
I16
sg5
S'student'
p907
ssI452
(dp908
g2
g3
sg4
I35
sg5
S'administrator'
p909
ssI453
(dp910
g2
g3
sg4
I18
sg5
S'student'
p911
ssI454
(dp912
g2
g3
sg4
I57
sg5
S'other'
p913
ssI455
(dp914
g2
g3
sg4
I48
sg5
S'administrator'
p915
ssI456
(dp916
g2
g3
sg4
I24
sg5
S'technician'
p917
ssI457
(dp918
g2
g8
sg4
I33
sg5
S'salesman'
p919
ssI458
(dp920
g2
g3
sg4
I47
sg5
S'technician'
p921
ssI459
(dp922
g2
g3
sg4
I22
sg5
S'student'
p923
ssI460
(dp924
g2
g8
sg4
I44
sg5
S'other'
p925
ssI461
(dp926
g2
g3
sg4
I15
sg5
S'student'
p927
ssI462
(dp928
g2
g8
sg4
I19
sg5
S'student'
p929
ssI463
(dp930
g2
g8
sg4
I48
sg5
S'healthcare'
p931
ssI464
(dp932
g2
g3
sg4
I60
sg5
S'writer'
p933
ssI465
(dp934
g2
g3
sg4
I32
sg5
S'other'
p935
ssI466
(dp936
g2
g3
sg4
I22
sg5
S'student'
p937
ssI467
(dp938
g2
g3
sg4
I29
sg5
S'engineer'
p939
ssI468
(dp940
g2
g3
sg4
I28
sg5
S'engineer'
p941
ssI469
(dp942
g2
g3
sg4
I60
sg5
S'educator'
p943
ssI470
(dp944
g2
g3
sg4
I24
sg5
S'programmer'
p945
ssI471
(dp946
g2
g3
sg4
I10
sg5
S'student'
p947
ssI472
(dp948
g2
g3
sg4
I24
sg5
S'student'
p949
ssI473
(dp950
g2
g3
sg4
I29
sg5
S'student'
p951
ssI474
(dp952
g2
g3
sg4
I51
sg5
S'executive'
p953
ssI475
(dp954
g2
g3
sg4
I30
sg5
S'programmer'
p955
ssI476
(dp956
g2
g3
sg4
I28
sg5
S'student'
p957
ssI477
(dp958
g2
g8
sg4
I23
sg5
S'student'
p959
ssI478
(dp960
g2
g3
sg4
I29
sg5
S'other'
p961
ssI479
(dp962
g2
g3
sg4
I30
sg5
S'educator'
p963
ssI480
(dp964
g2
g3
sg4
I57
sg5
S'retired'
p965
ssI481
(dp966
g2
g3
sg4
I73
sg5
S'retired'
p967
ssI482
(dp968
g2
g8
sg4
I18
sg5
S'student'
p969
ssI483
(dp970
g2
g3
sg4
I29
sg5
S'scientist'
p971
ssI484
(dp972
g2
g3
sg4
I27
sg5
S'student'
p973
ssI485
(dp974
g2
g8
sg4
I44
sg5
S'educator'
p975
ssI486
(dp976
g2
g3
sg4
I39
sg5
S'educator'
p977
ssI487
(dp978
g2
g3
sg4
I22
sg5
S'engineer'
p979
ssI488
(dp980
g2
g3
sg4
I48
sg5
S'technician'
p981
ssI489
(dp982
g2
g3
sg4
I55
sg5
S'other'
p983
ssI490
(dp984
g2
g8
sg4
I29
sg5
S'artist'
p985
ssI491
(dp986
g2
g8
sg4
I43
sg5
S'writer'
p987
ssI492
(dp988
g2
g3
sg4
I57
sg5
S'educator'
p989
ssI493
(dp990
g2
g3
sg4
I22
sg5
S'engineer'
p991
ssI494
(dp992
g2
g8
sg4
I38
sg5
S'administrator'
p993
ssI495
(dp994
g2
g3
sg4
I29
sg5
S'engineer'
p995
ssI496
(dp996
g2
g8
sg4
I21
sg5
S'student'
p997
ssI497
(dp998
g2
g3
sg4
I20
sg5
S'student'
p999
ssI498
(dp1000
g2
g3
sg4
I26
sg5
S'writer'
p1001
ssI499
(dp1002
g2
g3
sg4
I42
sg5
S'programmer'
p1003
ssI500
(dp1004
g2
g3
sg4
I28
sg5
S'administrator'
p1005
ssI501
(dp1006
g2
g3
sg4
I22
sg5
S'student'
p1007
ssI502
(dp1008
g2
g3
sg4
I22
sg5
S'student'
p1009
ssI503
(dp1010
g2
g8
sg4
I50
sg5
S'writer'
p1011
ssI504
(dp1012
g2
g8
sg4
I40
sg5
S'writer'
p1013
ssI505
(dp1014
g2
g8
sg4
I27
sg5
S'other'
p1015
ssI506
(dp1016
g2
g3
sg4
I46
sg5
S'programmer'
p1017
ssI507
(dp1018
g2
g8
sg4
I18
sg5
S'writer'
p1019
ssI508
(dp1020
g2
g3
sg4
I27
sg5
S'marketing'
p1021
ssI509
(dp1022
g2
g3
sg4
I23
sg5
S'administrator'
p1023
ssI510
(dp1024
g2
g3
sg4
I34
sg5
S'other'
p1025
ssI511
(dp1026
g2
g3
sg4
I22
sg5
S'student'
p1027
ssI512
(dp1028
g2
g3
sg4
I29
sg5
S'other'
p1029
ssI513
(dp1030
g2
g3
sg4
I43
sg5
S'administrator'
p1031
ssI514
(dp1032
g2
g3
sg4
I27
sg5
S'programmer'
p1033
ssI515
(dp1034
g2
g3
sg4
I53
sg5
S'marketing'
p1035
ssI516
(dp1036
g2
g8
sg4
I53
sg5
S'librarian'
p1037
ssI517
(dp1038
g2
g3
sg4
I24
sg5
S'student'
p1039
ssI518
(dp1040
g2
g8
sg4
I49
sg5
S'writer'
p1041
ssI519
(dp1042
g2
g3
sg4
I22
sg5
S'other'
p1043
ssI520
(dp1044
g2
g3
sg4
I62
sg5
S'healthcare'
p1045
ssI521
(dp1046
g2
g3
sg4
I19
sg5
S'student'
p1047
ssI522
(dp1048
g2
g3
sg4
I36
sg5
S'engineer'
p1049
ssI523
(dp1050
g2
g8
sg4
I50
sg5
S'administrator'
p1051
ssI524
(dp1052
g2
g3
sg4
I56
sg5
S'educator'
p1053
ssI525
(dp1054
g2
g8
sg4
I27
sg5
S'administrator'
p1055
ssI526
(dp1056
g2
g3
sg4
I30
sg5
S'marketing'
p1057
ssI527
(dp1058
g2
g3
sg4
I33
sg5
S'librarian'
p1059
ssI528
(dp1060
g2
g3
sg4
I18
sg5
S'student'
p1061
ssI529
(dp1062
g2
g8
sg4
I47
sg5
S'administrator'
p1063
ssI530
(dp1064
g2
g3
sg4
I29
sg5
S'engineer'
p1065
ssI531
(dp1066
g2
g8
sg4
I30
sg5
S'salesman'
p1067
ssI532
(dp1068
g2
g3
sg4
I20
sg5
S'student'
p1069
ssI533
(dp1070
g2
g3
sg4
I43
sg5
S'librarian'
p1071
ssI534
(dp1072
g2
g3
sg4
I20
sg5
S'student'
p1073
ssI535
(dp1074
g2
g8
sg4
I45
sg5
S'educator'
p1075
ssI536
(dp1076
g2
g3
sg4
I38
sg5
S'engineer'
p1077
ssI537
(dp1078
g2
g3
sg4
I36
sg5
S'engineer'
p1079
ssI538
(dp1080
g2
g3
sg4
I31
sg5
S'scientist'
p1081
ssI539
(dp1082
g2
g8
sg4
I53
sg5
S'administrator'
p1083
ssI540
(dp1084
g2
g3
sg4
I28
sg5
S'engineer'
p1085
ssI541
(dp1086
g2
g8
sg4
I19
sg5
S'student'
p1087
ssI542
(dp1088
g2
g3
sg4
I21
sg5
S'student'
p1089
ssI543
(dp1090
g2
g3
sg4
I33
sg5
S'scientist'
p1091
ssI544
(dp1092
g2
g8
sg4
I44
sg5
S'other'
p1093
ssI545
(dp1094
g2
g3
sg4
I27
sg5
S'technician'
p1095
ssI546
(dp1096
g2
g3
sg4
I36
sg5
S'executive'
p1097
ssI547
(dp1098
g2
g3
sg4
I50
sg5
S'educator'
p1099
ssI548
(dp1100
g2
g3
sg4
I51
sg5
S'writer'
p1101
ssI549
(dp1102
g2
g3
sg4
I42
sg5
S'scientist'
p1103
ssI550
(dp1104
g2
g8
sg4
I16
sg5
S'student'
p1105
ssI551
(dp1106
g2
g3
sg4
I25
sg5
S'programmer'
p1107
ssI552
(dp1108
g2
g3
sg4
I45
sg5
S'other'
p1109
ssI553
(dp1110
g2
g3
sg4
I58
sg5
S'educator'
p1111
ssI554
(dp1112
g2
g3
sg4
I32
sg5
S'scientist'
p1113
ssI555
(dp1114
g2
g8
sg4
I29
sg5
S'educator'
p1115
ssI556
(dp1116
g2
g8
sg4
I35
sg5
S'educator'
p1117
ssI557
(dp1118
g2
g8
sg4
I30
sg5
S'writer'
p1119
ssI558
(dp1120
g2
g8
sg4
I56
sg5
S'writer'
p1121
ssI559
(dp1122
g2
g3
sg4
I69
sg5
S'executive'
p1123
ssI560
(dp1124
g2
g3
sg4
I32
sg5
S'student'
p1125
ssI561
(dp1126
g2
g3
sg4
I23
sg5
S'engineer'
p1127
ssI562
(dp1128
g2
g8
sg4
I54
sg5
S'administrator'
p1129
ssI563
(dp1130
g2
g8
sg4
I39
sg5
S'librarian'
p1131
ssI564
(dp1132
g2
g3
sg4
I65
sg5
S'retired'
p1133
ssI565
(dp1134
g2
g3
sg4
I40
sg5
S'student'
p1135
ssI566
(dp1136
g2
g3
sg4
I20
sg5
S'student'
p1137
ssI567
(dp1138
g2
g3
sg4
I24
sg5
S'entertainment'
p1139
ssI568
(dp1140
g2
g3
sg4
I39
sg5
S'educator'
p1141
ssI569
(dp1142
g2
g3
sg4
I34
sg5
S'educator'
p1143
ssI570
(dp1144
g2
g3
sg4
I26
sg5
S'educator'
p1145
ssI571
(dp1146
g2
g3
sg4
I34
sg5
S'artist'
p1147
ssI572
(dp1148
g2
g3
sg4
I51
sg5
S'educator'
p1149
ssI573
(dp1150
g2
g3
sg4
I68
sg5
S'retired'
p1151
ssI574
(dp1152
g2
g3
sg4
I56
sg5
S'educator'
p1153
ssI575
(dp1154
g2
g3
sg4
I33
sg5
S'marketing'
p1155
ssI576
(dp1156
g2
g3
sg4
I48
sg5
S'executive'
p1157
ssI577
(dp1158
g2
g8
sg4
I36
sg5
S'student'
p1159
ssI578
(dp1160
g2
g3
sg4
I31
sg5
S'administrator'
p1161
ssI579
(dp1162
g2
g3
sg4
I32
sg5
S'educator'
p1163
ssI580
(dp1164
g2
g3
sg4
I16
sg5
S'student'
p1165
ssI581
(dp1166
g2
g3
sg4
I37
sg5
S'other'
p1167
ssI582
(dp1168
g2
g3
sg4
I17
sg5
S'student'
p1169
ssI583
(dp1170
g2
g3
sg4
I44
sg5
S'engineer'
p1171
ssI584
(dp1172
g2
g3
sg4
I25
sg5
S'student'
p1173
ssI585
(dp1174
g2
g3
sg4
I69
sg5
S'librarian'
p1175
ssI586
(dp1176
g2
g3
sg4
I20
sg5
S'student'
p1177
ssI587
(dp1178
g2
g3
sg4
I26
sg5
S'other'
p1179
ssI588
(dp1180
g2
g8
sg4
I18
sg5
S'student'
p1181
ssI589
(dp1182
g2
g3
sg4
I21
sg5
S'lawyer'
p1183
ssI590
(dp1184
g2
g3
sg4
I50
sg5
S'educator'
p1185
ssI591
(dp1186
g2
g8
sg4
I57
sg5
S'librarian'
p1187
ssI592
(dp1188
g2
g3
sg4
I18
sg5
S'student'
p1189
ssI593
(dp1190
g2
g8
sg4
I31
sg5
S'educator'
p1191
ssI594
(dp1192
g2
g3
sg4
I46
sg5
S'educator'
p1193
ssI595
(dp1194
g2
g3
sg4
I25
sg5
S'programmer'
p1195
ssI596
(dp1196
g2
g3
sg4
I20
sg5
S'artist'
p1197
ssI597
(dp1198
g2
g3
sg4
I23
sg5
S'other'
p1199
ssI598
(dp1200
g2
g8
sg4
I40
sg5
S'marketing'
p1201
ssI599
(dp1202
g2
g8
sg4
I22
sg5
S'student'
p1203
ssI600
(dp1204
g2
g3
sg4
I34
sg5
S'programmer'
p1205
ssI601
(dp1206
g2
g8
sg4
I19
sg5
S'artist'
p1207
ssI602
(dp1208
g2
g8
sg4
I47
sg5
S'other'
p1209
ssI603
(dp1210
g2
g3
sg4
I21
sg5
S'programmer'
p1211
ssI604
(dp1212
g2
g3
sg4
I39
sg5
S'educator'
p1213
ssI605
(dp1214
g2
g3
sg4
I33
sg5
S'engineer'
p1215
ssI606
(dp1216
g2
g3
sg4
I28
sg5
S'programmer'
p1217
ssI607
(dp1218
g2
g8
sg4
I49
sg5
S'healthcare'
p1219
ssI608
(dp1220
g2
g3
sg4
I22
sg5
S'other'
p1221
ssI609
(dp1222
g2
g8
sg4
I13
sg5
S'student'
p1223
ssI610
(dp1224
g2
g3
sg4
I22
sg5
S'student'
p1225
ssI611
(dp1226
g2
g3
sg4
I46
sg5
S'librarian'
p1227
ssI612
(dp1228
g2
g3
sg4
I36
sg5
S'educator'
p1229
ssI613
(dp1230
g2
g8
sg4
I37
sg5
S'marketing'
p1231
ssI614
(dp1232
g2
g3
sg4
I54
sg5
S'educator'
p1233
ssI615
(dp1234
g2
g3
sg4
I38
sg5
S'educator'
p1235
ssI616
(dp1236
g2
g3
sg4
I55
sg5
S'scientist'
p1237
ssI617
(dp1238
g2
g8
sg4
I27
sg5
S'writer'
p1239
ssI618
(dp1240
g2
g8
sg4
I15
sg5
S'student'
p1241
ssI619
(dp1242
g2
g3
sg4
I17
sg5
S'student'
p1243
ssI620
(dp1244
g2
g8
sg4
I18
sg5
S'writer'
p1245
ssI621
(dp1246
g2
g3
sg4
I17
sg5
S'student'
p1247
ssI622
(dp1248
g2
g3
sg4
I25
sg5
S'programmer'
p1249
ssI623
(dp1250
g2
g8
sg4
I50
sg5
S'educator'
p1251
ssI624
(dp1252
g2
g3
sg4
I19
sg5
S'student'
p1253
ssI625
(dp1254
g2
g3
sg4
I27
sg5
S'programmer'
p1255
ssI626
(dp1256
g2
g3
sg4
I23
sg5
S'scientist'
p1257
ssI627
(dp1258
g2
g3
sg4
I24
sg5
S'engineer'
p1259
ssI628
(dp1260
g2
g3
sg4
I13
sg5
S'none'
p1261
ssI629
(dp1262
g2
g8
sg4
I46
sg5
S'other'
p1263
ssI630
(dp1264
g2
g8
sg4
I26
sg5
S'healthcare'
p1265
ssI631
(dp1266
g2
g8
sg4
I18
sg5
S'student'
p1267
ssI632
(dp1268
g2
g3
sg4
I18
sg5
S'student'
p1269
ssI633
(dp1270
g2
g3
sg4
I35
sg5
S'programmer'
p1271
ssI634
(dp1272
g2
g3
sg4
I39
sg5
S'engineer'
p1273
ssI635
(dp1274
g2
g3
sg4
I22
sg5
S'other'
p1275
ssI636
(dp1276
g2
g3
sg4
I47
sg5
S'educator'
p1277
ssI637
(dp1278
g2
g3
sg4
I30
sg5
S'other'
p1279
ssI638
(dp1280
g2
g3
sg4
I45
sg5
S'engineer'
p1281
ssI639
(dp1282
g2
g8
sg4
I42
sg5
S'librarian'
p1283
ssI640
(dp1284
g2
g3
sg4
I20
sg5
S'student'
p1285
ssI641
(dp1286
g2
g3
sg4
I24
sg5
S'student'
p1287
ssI642
(dp1288
g2
g8
sg4
I18
sg5
S'student'
p1289
ssI643
(dp1290
g2
g3
sg4
I39
sg5
S'scientist'
p1291
ssI644
(dp1292
g2
g3
sg4
I51
sg5
S'retired'
p1293
ssI645
(dp1294
g2
g3
sg4
I27
sg5
S'programmer'
p1295
ssI646
(dp1296
g2
g8
sg4
I17
sg5
S'student'
p1297
ssI647
(dp1298
g2
g3
sg4
I40
sg5
S'educator'
p1299
ssI648
(dp1300
g2
g3
sg4
I43
sg5
S'engineer'
p1301
ssI649
(dp1302
g2
g3
sg4
I20
sg5
S'student'
p1303
ssI650
(dp1304
g2
g3
sg4
I42
sg5
S'engineer'
p1305
ssI651
(dp1306
g2
g3
sg4
I65
sg5
S'retired'
p1307
ssI652
(dp1308
g2
g3
sg4
I35
sg5
S'other'
p1309
ssI653
(dp1310
g2
g3
sg4
I31
sg5
S'executive'
p1311
ssI654
(dp1312
g2
g8
sg4
I27
sg5
S'student'
p1313
ssI655
(dp1314
g2
g8
sg4
I50
sg5
S'healthcare'
p1315
ssI656
(dp1316
g2
g3
sg4
I48
sg5
S'educator'
p1317
ssI657
(dp1318
g2
g8
sg4
I26
sg5
S'none'
p1319
ssI658
(dp1320
g2
g3
sg4
I33
sg5
S'programmer'
p1321
ssI659
(dp1322
g2
g3
sg4
I31
sg5
S'educator'
p1323
ssI660
(dp1324
g2
g3
sg4
I26
sg5
S'student'
p1325
ssI661
(dp1326
g2
g3
sg4
I28
sg5
S'programmer'
p1327
ssI662
(dp1328
g2
g3
sg4
I55
sg5
S'librarian'
p1329
ssI663
(dp1330
g2
g3
sg4
I26
sg5
S'other'
p1331
ssI664
(dp1332
g2
g3
sg4
I30
sg5
S'engineer'
p1333
ssI665
(dp1334
g2
g3
sg4
I25
sg5
S'administrator'
p1335
ssI666
(dp1336
g2
g3
sg4
I44
sg5
S'administrator'
p1337
ssI667
(dp1338
g2
g3
sg4
I35
sg5
S'librarian'
p1339
ssI668
(dp1340
g2
g8
sg4
I29
sg5
S'writer'
p1341
ssI669
(dp1342
g2
g3
sg4
I37
sg5
S'other'
p1343
ssI670
(dp1344
g2
g3
sg4
I30
sg5
S'technician'
p1345
ssI671
(dp1346
g2
g3
sg4
I21
sg5
S'programmer'
p1347
ssI672
(dp1348
g2
g8
sg4
I54
sg5
S'administrator'
p1349
ssI673
(dp1350
g2
g3
sg4
I51
sg5
S'educator'
p1351
ssI674
(dp1352
g2
g8
sg4
I13
sg5
S'student'
p1353
ssI675
(dp1354
g2
g3
sg4
I34
sg5
S'other'
p1355
ssI676
(dp1356
g2
g3
sg4
I30
sg5
S'programmer'
p1357
ssI677
(dp1358
g2
g3
sg4
I20
sg5
S'other'
p1359
ssI678
(dp1360
g2
g3
sg4
I50
sg5
S'educator'
p1361
ssI679
(dp1362
g2
g8
sg4
I20
sg5
S'student'
p1363
ssI680
(dp1364
g2
g3
sg4
I33
sg5
S'lawyer'
p1365
ssI681
(dp1366
g2
g8
sg4
I44
sg5
S'marketing'
p1367
ssI682
(dp1368
g2
g3
sg4
I23
sg5
S'programmer'
p1369
ssI683
(dp1370
g2
g3
sg4
I42
sg5
S'librarian'
p1371
ssI684
(dp1372
g2
g3
sg4
I28
sg5
S'student'
p1373
ssI685
(dp1374
g2
g8
sg4
I32
sg5
S'librarian'
p1375
ssI686
(dp1376
g2
g3
sg4
I32
sg5
S'educator'
p1377
ssI687
(dp1378
g2
g8
sg4
I31
sg5
S'healthcare'
p1379
ssI688
(dp1380
g2
g8
sg4
I37
sg5
S'administrator'
p1381
ssI689
(dp1382
g2
g3
sg4
I25
sg5
S'other'
p1383
ssI690
(dp1384
g2
g3
sg4
I35
sg5
S'salesman'
p1385
ssI691
(dp1386
g2
g3
sg4
I34
sg5
S'educator'
p1387
ssI692
(dp1388
g2
g3
sg4
I34
sg5
S'engineer'
p1389
ssI693
(dp1390
g2
g8
sg4
I43
sg5
S'healthcare'
p1391
ssI694
(dp1392
g2
g3
sg4
I60
sg5
S'programmer'
p1393
ssI695
(dp1394
g2
g3
sg4
I26
sg5
S'writer'
p1395
ssI696
(dp1396
g2
g3
sg4
I55
sg5
S'other'
p1397
ssI697
(dp1398
g2
g3
sg4
I25
sg5
S'other'
p1399
ssI698
(dp1400
g2
g8
sg4
I28
sg5
S'programmer'
p1401
ssI699
(dp1402
g2
g3
sg4
I44
sg5
S'other'
p1403
ssI700
(dp1404
g2
g3
sg4
I17
sg5
S'student'
p1405
ssI701
(dp1406
g2
g8
sg4
I51
sg5
S'librarian'
p1407
ssI702
(dp1408
g2
g3
sg4
I37
sg5
S'other'
p1409
ssI703
(dp1410
g2
g3
sg4
I26
sg5
S'educator'
p1411
ssI704
(dp1412
g2
g8
sg4
I51
sg5
S'librarian'
p1413
ssI705
(dp1414
g2
g8
sg4
I21
sg5
S'student'
p1415
ssI706
(dp1416
g2
g3
sg4
I23
sg5
S'student'
p1417
ssI707
(dp1418
g2
g8
sg4
I56
sg5
S'librarian'
p1419
ssI708
(dp1420
g2
g8
sg4
I26
sg5
S'homemaker'
p1421
ssI709
(dp1422
g2
g3
sg4
I21
sg5
S'other'
p1423
ssI710
(dp1424
g2
g3
sg4
I19
sg5
S'student'
p1425
ssI711
(dp1426
g2
g8
sg4
I22
sg5
S'student'
p1427
ssI712
(dp1428
g2
g8
sg4
I22
sg5
S'student'
p1429
ssI713
(dp1430
g2
g8
sg4
I42
sg5
S'other'
p1431
ssI714
(dp1432
g2
g3
sg4
I26
sg5
S'engineer'
p1433
ssI715
(dp1434
g2
g3
sg4
I21
sg5
S'technician'
p1435
ssI716
(dp1436
g2
g8
sg4
I36
sg5
S'administrator'
p1437
ssI717
(dp1438
g2
g3
sg4
I24
sg5
S'technician'
p1439
ssI718
(dp1440
g2
g3
sg4
I42
sg5
S'technician'
p1441
ssI719
(dp1442
g2
g8
sg4
I37
sg5
S'other'
p1443
ssI720
(dp1444
g2
g8
sg4
I49
sg5
S'administrator'
p1445
ssI721
(dp1446
g2
g8
sg4
I24
sg5
S'entertainment'
p1447
ssI722
(dp1448
g2
g8
sg4
I50
sg5
S'homemaker'
p1449
ssI723
(dp1450
g2
g3
sg4
I26
sg5
S'executive'
p1451
ssI724
(dp1452
g2
g3
sg4
I31
sg5
S'executive'
p1453
ssI725
(dp1454
g2
g3
sg4
I21
sg5
S'student'
p1455
ssI726
(dp1456
g2
g8
sg4
I25
sg5
S'administrator'
p1457
ssI727
(dp1458
g2
g3
sg4
I25
sg5
S'student'
p1459
ssI728
(dp1460
g2
g3
sg4
I58
sg5
S'executive'
p1461
ssI729
(dp1462
g2
g3
sg4
I19
sg5
S'student'
p1463
ssI730
(dp1464
g2
g8
sg4
I31
sg5
S'scientist'
p1465
ssI731
(dp1466
g2
g8
sg4
I41
sg5
S'educator'
p1467
ssI732
(dp1468
g2
g8
sg4
I28
sg5
S'other'
p1469
ssI733
(dp1470
g2
g8
sg4
I44
sg5
S'other'
p1471
ssI734
(dp1472
g2
g8
sg4
I25
sg5
S'other'
p1473
ssI735
(dp1474
g2
g8
sg4
I29
sg5
S'healthcare'
p1475
ssI736
(dp1476
g2
g8
sg4
I48
sg5
S'writer'
p1477
ssI737
(dp1478
g2
g3
sg4
I30
sg5
S'programmer'
p1479
ssI738
(dp1480
g2
g3
sg4
I35
sg5
S'technician'
p1481
ssI739
(dp1482
g2
g3
sg4
I35
sg5
S'technician'
p1483
ssI740
(dp1484
g2
g8
sg4
I25
sg5
S'educator'
p1485
ssI741
(dp1486
g2
g3
sg4
I25
sg5
S'writer'
p1487
ssI742
(dp1488
g2
g3
sg4
I35
sg5
S'student'
p1489
ssI743
(dp1490
g2
g3
sg4
I31
sg5
S'programmer'
p1491
ssI744
(dp1492
g2
g3
sg4
I35
sg5
S'marketing'
p1493
ssI745
(dp1494
g2
g3
sg4
I42
sg5
S'writer'
p1495
ssI746
(dp1496
g2
g3
sg4
I25
sg5
S'engineer'
p1497
ssI747
(dp1498
g2
g3
sg4
I19
sg5
S'other'
p1499
ssI748
(dp1500
g2
g3
sg4
I28
sg5
S'administrator'
p1501
ssI749
(dp1502
g2
g3
sg4
I33
sg5
S'other'
p1503
ssI750
(dp1504
g2
g3
sg4
I28
sg5
S'administrator'
p1505
ssI751
(dp1506
g2
g8
sg4
I24
sg5
S'other'
p1507
ssI752
(dp1508
g2
g3
sg4
I60
sg5
S'retired'
p1509
ssI753
(dp1510
g2
g3
sg4
I56
sg5
S'salesman'
p1511
ssI754
(dp1512
g2
g8
sg4
I59
sg5
S'librarian'
p1513
ssI755
(dp1514
g2
g8
sg4
I44
sg5
S'educator'
p1515
ssI756
(dp1516
g2
g8
sg4
I30
sg5
S'none'
p1517
ssI757
(dp1518
g2
g3
sg4
I26
sg5
S'student'
p1519
ssI758
(dp1520
g2
g3
sg4
I27
sg5
S'student'
p1521
ssI759
(dp1522
g2
g8
sg4
I20
sg5
S'student'
p1523
ssI760
(dp1524
g2
g8
sg4
I35
sg5
S'other'
p1525
ssI761
(dp1526
g2
g3
sg4
I17
sg5
S'student'
p1527
ssI762
(dp1528
g2
g3
sg4
I32
sg5
S'administrator'
p1529
ssI763
(dp1530
g2
g3
sg4
I27
sg5
S'scientist'
p1531
ssI764
(dp1532
g2
g8
sg4
I27
sg5
S'educator'
p1533
ssI765
(dp1534
g2
g3
sg4
I31
sg5
S'student'
p1535
ssI766
(dp1536
g2
g3
sg4
I42
sg5
S'other'
p1537
ssI767
(dp1538
g2
g3
sg4
I70
sg5
S'engineer'
p1539
ssI768
(dp1540
g2
g3
sg4
I29
sg5
S'administrator'
p1541
ssI769
(dp1542
g2
g3
sg4
I39
sg5
S'executive'
p1543
ssI770
(dp1544
g2
g3
sg4
I28
sg5
S'student'
p1545
ssI771
(dp1546
g2
g3
sg4
I26
sg5
S'student'
p1547
ssI772
(dp1548
g2
g3
sg4
I50
sg5
S'writer'
p1549
ssI773
(dp1550
g2
g3
sg4
I20
sg5
S'student'
p1551
ssI774
(dp1552
g2
g3
sg4
I30
sg5
S'student'
p1553
ssI775
(dp1554
g2
g3
sg4
I46
sg5
S'executive'
p1555
ssI776
(dp1556
g2
g3
sg4
I30
sg5
S'librarian'
p1557
ssI777
(dp1558
g2
g3
sg4
I63
sg5
S'programmer'
p1559
ssI778
(dp1560
g2
g3
sg4
I34
sg5
S'student'
p1561
ssI779
(dp1562
g2
g3
sg4
I31
sg5
S'student'
p1563
ssI780
(dp1564
g2
g3
sg4
I49
sg5
S'programmer'
p1565
ssI781
(dp1566
g2
g3
sg4
I20
sg5
S'student'
p1567
ssI782
(dp1568
g2
g8
sg4
I21
sg5
S'artist'
p1569
ssI783
(dp1570
g2
g3
sg4
I30
sg5
S'marketing'
p1571
ssI784
(dp1572
g2
g3
sg4
I47
sg5
S'administrator'
p1573
ssI785
(dp1574
g2
g3
sg4
I32
sg5
S'engineer'
p1575
ssI786
(dp1576
g2
g8
sg4
I36
sg5
S'engineer'
p1577
ssI787
(dp1578
g2
g8
sg4
I18
sg5
S'student'
p1579
ssI788
(dp1580
g2
g3
sg4
I51
sg5
S'administrator'
p1581
ssI789
(dp1582
g2
g3
sg4
I29
sg5
S'other'
p1583
ssI790
(dp1584
g2
g3
sg4
I27
sg5
S'technician'
p1585
ssI791
(dp1586
g2
g3
sg4
I31
sg5
S'educator'
p1587
ssI792
(dp1588
g2
g3
sg4
I40
sg5
S'programmer'
p1589
ssI793
(dp1590
g2
g3
sg4
I22
sg5
S'student'
p1591
ssI794
(dp1592
g2
g3
sg4
I32
sg5
S'educator'
p1593
ssI795
(dp1594
g2
g3
sg4
I30
sg5
S'programmer'
p1595
ssI796
(dp1596
g2
g8
sg4
I32
sg5
S'writer'
p1597
ssI797
(dp1598
g2
g8
sg4
I44
sg5
S'other'
p1599
ssI798
(dp1600
g2
g8
sg4
I40
sg5
S'writer'
p1601
ssI799
(dp1602
g2
g8
sg4
I49
sg5
S'administrator'
p1603
ssI800
(dp1604
g2
g3
sg4
I25
sg5
S'programmer'
p1605
ssI801
(dp1606
g2
g3
sg4
I22
sg5
S'writer'
p1607
ssI802
(dp1608
g2
g3
sg4
I35
sg5
S'administrator'
p1609
ssI803
(dp1610
g2
g3
sg4
I70
sg5
S'administrator'
p1611
ssI804
(dp1612
g2
g3
sg4
I39
sg5
S'educator'
p1613
ssI805
(dp1614
g2
g8
sg4
I27
sg5
S'other'
p1615
ssI806
(dp1616
g2
g3
sg4
I27
sg5
S'marketing'
p1617
ssI807
(dp1618
g2
g8
sg4
I41
sg5
S'healthcare'
p1619
ssI808
(dp1620
g2
g3
sg4
I45
sg5
S'salesman'
p1621
ssI809
(dp1622
g2
g8
sg4
I50
sg5
S'marketing'
p1623
ssI810
(dp1624
g2
g8
sg4
I55
sg5
S'other'
p1625
ssI811
(dp1626
g2
g8
sg4
I40
sg5
S'educator'
p1627
ssI812
(dp1628
g2
g3
sg4
I22
sg5
S'technician'
p1629
ssI813
(dp1630
g2
g8
sg4
I14
sg5
S'student'
p1631
ssI814
(dp1632
g2
g3
sg4
I30
sg5
S'other'
p1633
ssI815
(dp1634
g2
g3
sg4
I32
sg5
S'other'
p1635
ssI816
(dp1636
g2
g3
sg4
I34
sg5
S'other'
p1637
ssI817
(dp1638
g2
g3
sg4
I19
sg5
S'student'
p1639
ssI818
(dp1640
g2
g3
sg4
I28
sg5
S'librarian'
p1641
ssI819
(dp1642
g2
g3
sg4
I59
sg5
S'administrator'
p1643
ssI820
(dp1644
g2
g3
sg4
I22
sg5
S'student'
p1645
ssI821
(dp1646
g2
g3
sg4
I37
sg5
S'engineer'
p1647
ssI822
(dp1648
g2
g8
sg4
I29
sg5
S'librarian'
p1649
ssI823
(dp1650
g2
g3
sg4
I27
sg5
S'artist'
p1651
ssI824
(dp1652
g2
g3
sg4
I31
sg5
S'other'
p1653
ssI825
(dp1654
g2
g3
sg4
I44
sg5
S'engineer'
p1655
ssI826
(dp1656
g2
g3
sg4
I28
sg5
S'artist'
p1657
ssI827
(dp1658
g2
g8
sg4
I23
sg5
S'engineer'
p1659
ssI828
(dp1660
g2
g3
sg4
I28
sg5
S'librarian'
p1661
ssI829
(dp1662
g2
g3
sg4
I48
sg5
S'writer'
p1663
ssI830
(dp1664
g2
g3
sg4
I46
sg5
S'programmer'
p1665
ssI831
(dp1666
g2
g3
sg4
I21
sg5
S'other'
p1667
ssI832
(dp1668
g2
g3
sg4
I24
sg5
S'technician'
p1669
ssI833
(dp1670
g2
g3
sg4
I34
sg5
S'writer'
p1671
ssI834
(dp1672
g2
g3
sg4
I26
sg5
S'other'
p1673
ssI835
(dp1674
g2
g8
sg4
I44
sg5
S'executive'
p1675
ssI836
(dp1676
g2
g3
sg4
I44
sg5
S'artist'
p1677
ssI837
(dp1678
g2
g8
sg4
I36
sg5
S'artist'
p1679
ssI838
(dp1680
g2
g3
sg4
I23
sg5
S'student'
p1681
ssI839
(dp1682
g2
g8
sg4
I38
sg5
S'entertainment'
p1683
ssI840
(dp1684
g2
g3
sg4
I39
sg5
S'artist'
p1685
ssI841
(dp1686
g2
g3
sg4
I45
sg5
S'doctor'
p1687
ssI842
(dp1688
g2
g3
sg4
I40
sg5
S'writer'
p1689
ssI843
(dp1690
g2
g3
sg4
I35
sg5
S'librarian'
p1691
ssI844
(dp1692
g2
g3
sg4
I22
sg5
S'engineer'
p1693
ssI845
(dp1694
g2
g3
sg4
I64
sg5
S'doctor'
p1695
ssI846
(dp1696
g2
g3
sg4
I27
sg5
S'lawyer'
p1697
ssI847
(dp1698
g2
g3
sg4
I29
sg5
S'student'
p1699
ssI848
(dp1700
g2
g3
sg4
I46
sg5
S'engineer'
p1701
ssI849
(dp1702
g2
g8
sg4
I15
sg5
S'student'
p1703
ssI850
(dp1704
g2
g3
sg4
I34
sg5
S'technician'
p1705
ssI851
(dp1706
g2
g3
sg4
I18
sg5
S'other'
p1707
ssI852
(dp1708
g2
g3
sg4
I46
sg5
S'administrator'
p1709
ssI853
(dp1710
g2
g3
sg4
I49
sg5
S'writer'
p1711
ssI854
(dp1712
g2
g8
sg4
I29
sg5
S'student'
p1713
ssI855
(dp1714
g2
g3
sg4
I53
sg5
S'librarian'
p1715
ssI856
(dp1716
g2
g8
sg4
I43
sg5
S'marketing'
p1717
ssI857
(dp1718
g2
g8
sg4
I35
sg5
S'administrator'
p1719
ssI858
(dp1720
g2
g3
sg4
I63
sg5
S'educator'
p1721
ssI859
(dp1722
g2
g8
sg4
I18
sg5
S'other'
p1723
ssI860
(dp1724
g2
g8
sg4
I70
sg5
S'retired'
p1725
ssI861
(dp1726
g2
g8
sg4
I38
sg5
S'student'
p1727
ssI862
(dp1728
g2
g3
sg4
I25
sg5
S'executive'
p1729
ssI863
(dp1730
g2
g3
sg4
I17
sg5
S'student'
p1731
ssI864
(dp1732
g2
g3
sg4
I27
sg5
S'programmer'
p1733
ssI865
(dp1734
g2
g3
sg4
I25
sg5
S'artist'
p1735
ssI866
(dp1736
g2
g3
sg4
I45
sg5
S'other'
p1737
ssI867
(dp1738
g2
g3
sg4
I24
sg5
S'scientist'
p1739
ssI868
(dp1740
g2
g3
sg4
I21
sg5
S'programmer'
p1741
ssI869
(dp1742
g2
g3
sg4
I30
sg5
S'student'
p1743
ssI870
(dp1744
g2
g3
sg4
I22
sg5
S'student'
p1745
ssI871
(dp1746
g2
g3
sg4
I31
sg5
S'executive'
p1747
ssI872
(dp1748
g2
g8
sg4
I19
sg5
S'student'
p1749
ssI873
(dp1750
g2
g8
sg4
I48
sg5
S'administrator'
p1751
ssI874
(dp1752
g2
g3
sg4
I36
sg5
S'scientist'
p1753
ssI875
(dp1754
g2
g8
sg4
I24
sg5
S'student'
p1755
ssI876
(dp1756
g2
g3
sg4
I41
sg5
S'other'
p1757
ssI877
(dp1758
g2
g3
sg4
I30
sg5
S'other'
p1759
ssI878
(dp1760
g2
g8
sg4
I50
sg5
S'educator'
p1761
ssI879
(dp1762
g2
g8
sg4
I33
sg5
S'administrator'
p1763
ssI880
(dp1764
g2
g3
sg4
I13
sg5
S'student'
p1765
ssI881
(dp1766
g2
g3
sg4
I39
sg5
S'marketing'
p1767
ssI882
(dp1768
g2
g3
sg4
I35
sg5
S'engineer'
p1769
ssI883
(dp1770
g2
g3
sg4
I49
sg5
S'librarian'
p1771
ssI884
(dp1772
g2
g3
sg4
I44
sg5
S'engineer'
p1773
ssI885
(dp1774
g2
g8
sg4
I30
sg5
S'other'
p1775
ssI886
(dp1776
g2
g3
sg4
I20
sg5
S'student'
p1777
ssI887
(dp1778
g2
g8
sg4
I14
sg5
S'student'
p1779
ssI888
(dp1780
g2
g3
sg4
I41
sg5
S'scientist'
p1781
ssI889
(dp1782
g2
g3
sg4
I24
sg5
S'technician'
p1783
ssI890
(dp1784
g2
g3
sg4
I32
sg5
S'student'
p1785
ssI891
(dp1786
g2
g8
sg4
I51
sg5
S'administrator'
p1787
ssI892
(dp1788
g2
g3
sg4
I36
sg5
S'other'
p1789
ssI893
(dp1790
g2
g3
sg4
I25
sg5
S'student'
p1791
ssI894
(dp1792
g2
g3
sg4
I47
sg5
S'educator'
p1793
ssI895
(dp1794
g2
g8
sg4
I31
sg5
S'librarian'
p1795
ssI896
(dp1796
g2
g3
sg4
I28
sg5
S'writer'
p1797
ssI897
(dp1798
g2
g3
sg4
I30
sg5
S'other'
p1799
ssI898
(dp1800
g2
g3
sg4
I23
sg5
S'homemaker'
p1801
ssI899
(dp1802
g2
g3
sg4
I32
sg5
S'other'
p1803
ssI900
(dp1804
g2
g3
sg4
I60
sg5
S'retired'
p1805
ssI901
(dp1806
g2
g3
sg4
I38
sg5
S'executive'
p1807
ssI902
(dp1808
g2
g8
sg4
I45
sg5
S'artist'
p1809
ssI903
(dp1810
g2
g3
sg4
I28
sg5
S'educator'
p1811
ssI904
(dp1812
g2
g8
sg4
I17
sg5
S'student'
p1813
ssI905
(dp1814
g2
g3
sg4
I27
sg5
S'other'
p1815
ssI906
(dp1816
g2
g3
sg4
I45
sg5
S'librarian'
p1817
ssI907
(dp1818
g2
g8
sg4
I25
sg5
S'other'
p1819
ssI908
(dp1820
g2
g8
sg4
I44
sg5
S'librarian'
p1821
ssI909
(dp1822
g2
g8
sg4
I50
sg5
S'educator'
p1823
ssI910
(dp1824
g2
g3
sg4
I28
sg5
S'healthcare'
p1825
ssI911
(dp1826
g2
g8
sg4
I37
sg5
S'writer'
p1827
ssI912
(dp1828
g2
g3
sg4
I51
sg5
S'other'
p1829
ssI913
(dp1830
g2
g3
sg4
I27
sg5
S'student'
p1831
ssI914
(dp1832
g2
g8
sg4
I44
sg5
S'other'
p1833
ssI915
(dp1834
g2
g3
sg4
I50
sg5
S'entertainment'
p1835
ssI916
(dp1836
g2
g3
sg4
I27
sg5
S'engineer'
p1837
ssI917
(dp1838
g2
g8
sg4
I22
sg5
S'student'
p1839
ssI918
(dp1840
g2
g3
sg4
I40
sg5
S'scientist'
p1841
ssI919
(dp1842
g2
g3
sg4
I25
sg5
S'other'
p1843
ssI920
(dp1844
g2
g8
sg4
I30
sg5
S'artist'
p1845
ssI921
(dp1846
g2
g8
sg4
I20
sg5
S'student'
p1847
ssI922
(dp1848
g2
g8
sg4
I29
sg5
S'administrator'
p1849
ssI923
(dp1850
g2
g3
sg4
I21
sg5
S'student'
p1851
ssI924
(dp1852
g2
g3
sg4
I29
sg5
S'other'
p1853
ssI925
(dp1854
g2
g8
sg4
I18
sg5
S'salesman'
p1855
ssI926
(dp1856
g2
g3
sg4
I49
sg5
S'entertainment'
p1857
ssI927
(dp1858
g2
g3
sg4
I23
sg5
S'programmer'
p1859
ssI928
(dp1860
g2
g3
sg4
I21
sg5
S'student'
p1861
ssI929
(dp1862
g2
g3
sg4
I44
sg5
S'scientist'
p1863
ssI930
(dp1864
g2
g8
sg4
I28
sg5
S'scientist'
p1865
ssI931
(dp1866
g2
g3
sg4
I60
sg5
S'educator'
p1867
ssI932
(dp1868
g2
g3
sg4
I58
sg5
S'educator'
p1869
ssI933
(dp1870
g2
g3
sg4
I28
sg5
S'student'
p1871
ssI934
(dp1872
g2
g3
sg4
I61
sg5
S'engineer'
p1873
ssI935
(dp1874
g2
g3
sg4
I42
sg5
S'doctor'
p1875
ssI936
(dp1876
g2
g3
sg4
I24
sg5
S'other'
p1877
ssI937
(dp1878
g2
g3
sg4
I48
sg5
S'educator'
p1879
ssI938
(dp1880
g2
g8
sg4
I38
sg5
S'technician'
p1881
ssI939
(dp1882
g2
g8
sg4
I26
sg5
S'student'
p1883
ssI940
(dp1884
g2
g3
sg4
I32
sg5
S'administrator'
p1885
ssI941
(dp1886
g2
g3
sg4
I20
sg5
S'student'
p1887
ssI942
(dp1888
g2
g8
sg4
I48
sg5
S'librarian'
p1889
ssI943
(dp1890
g2
g3
sg4
I22
sg5
S'student'
p1891
ss.